MAGIC:
oat
064

CHECKSUM:
0x3020ec81

INSTRUCTION SET:
X86

INSTRUCTION SET FEATURES:
smp,-ssse3,-sse4.1,-sse4.2,-avx,-avx2

DEX FILE COUNT:
1

EXECUTABLE OFFSET:
0x00004000

INTERPRETER TO INTERPRETER BRIDGE OFFSET:
0x00000000

INTERPRETER TO COMPILED CODE BRIDGE OFFSET:
0x00000000

JNI DLSYM LOOKUP OFFSET:
0x00000000

QUICK GENERIC JNI TRAMPOLINE OFFSET:
0x00000000

QUICK IMT CONFLICT TRAMPOLINE OFFSET:
0x00000000

QUICK RESOLUTION TRAMPOLINE OFFSET:
0x00000000

QUICK TO INTERPRETER BRIDGE OFFSET:
0x00000000

IMAGE PATCH DELTA:
7200768 (0x006de000)

IMAGE FILE LOCATION OAT CHECKSUM:
0xbc44bb0b

IMAGE FILE LOCATION OAT BEGIN:
0x710b9000

KEY VALUE STORE:
classpath = 
debuggable = true
dex2oat-cmdline = --zip-fd=5 --zip-location=base.apk --oat-fd=6 --oat-location=/data/app/vmdl912152200.tmp/oat/x86/base.odex --instruction-set=x86 --instruction-set-variant=x86 --instruction-set-features=default --runtime-arg -Xms64m --runtime-arg -Xmx512m --swap-fd=7 --debuggable
dex2oat-host = X86
image-location = /data/dalvik-cache/x86/system@framework@boot.art
pic = true

SIZE:
25392

OatDexFile:
location: base.apk
checksum: 0xb6537f71
0: Lcom/ljj/fixtest/BuildConfig; (offset=0x00002d78) (type_idx=10) (StatusVerified) (OatClassSomeCompiled)
  0: void com.ljj.fixtest.BuildConfig.<clinit>() (dex_method_idx=10)
    DEX CODE:
      0x0000: 1a00 ca00                	| const-string v0, "true" // string@202
      0x0002: 7110 3700 0000           	| invoke-static {v0}, boolean java.lang.Boolean.parseBoolean(java.lang.String) // method@55
      0x0005: 0a00                     	| move-result v0
      0x0006: 6a00 0200                	| sput-boolean v0, Z com.ljj.fixtest.BuildConfig.DEBUG // field@2
      0x0008: 7300                     	| return-void-no-barrier
    OatMethodOffsets (offset=0x00000000)
      code_offset: 0x00000000 
      gc_map: (offset=0x00000000)
    OatQuickMethodHeader (offset=0x00000000)
      mapping_table: (offset=0x00000000)
      vmap_table: (offset=0x00000000)
    QuickMethodFrameInfo
      frame_size_in_bytes: 0
      core_spill_mask: 0x00000000 
      fp_spill_mask: 0x00000000 
      vr_stack_locations:
      	locals: v0[sp + #4294967288]
      	method*: v1[sp + #0]
      	outs: v0[sp + #4]
    CODE: (code_offset=0x00000000 size_offset=0x00000000 size=0)
      NO CODE!
  1: void com.ljj.fixtest.BuildConfig.<init>() (dex_method_idx=11)
    DEX CODE:
      0x0000: 7010 3f00 0000           	| invoke-direct {v0}, void java.lang.Object.<init>() // method@63
      0x0003: 0e00                     	| return-void
    OatMethodOffsets (offset=0x00002d84)
      code_offset: 0x0000401c 
      gc_map: (offset=0x00002e3c)
    OatQuickMethodHeader (offset=0x00004000)
      mapping_table: (offset=0x000031e0)
      vmap_table: (offset=0x00003438)
      v65535/r8
    QuickMethodFrameInfo
      frame_size_in_bytes: 32
      core_spill_mask: 0x00000100 (r8)
      fp_spill_mask: 0x00000000 
      vr_stack_locations:
      	ins: v0[sp + #36]
      	method*: v1[sp + #0]
      	outs: v0[sp + #4]
    CODE: (code_offset=0x0000401c size_offset=0x00004018 size=74)...
      0x0000401c:         85842400E0FFFF    	       test eax, [esp + -8192]
      suspend point dex PC: 0x0000
      GC map objects:  v0 ([sp + #36])
      0x00004023:                 83EC1C    	       sub esp, 28
      0x00004026:                 890424    	       mov [esp], eax
      0x00004029:               894C2424    	       mov [esp + 36], ecx
      0x0000402d:     6466833D0000000000    	       cmpw fs:[0x0], 0  ; state_and_flags
      0x00004036:           0F8521000000    	       jnz/ne +33 (0x0000405d)
      0x0000403c:               8B442424    	       mov eax, [esp + 36]
      0x00004040:                   8500    	       test eax, [eax]
      suspend point dex PC: 0x0000
      GC map objects:  v0 ([sp + #36])
      0x00004042:               89442414    	       mov [esp + 20], eax
      0x00004046:               8B4C2414    	       mov ecx, [esp + 20]
      0x0000404a:                 8B0424    	       mov eax, [esp]
      0x0000404d:                 8B4004    	       mov eax, [eax + 4]
      0x00004050:           8B8008010000    	       mov eax, [eax + 264]
      0x00004056:                 FF5024    	       call [eax + 36]
      suspend point dex PC: 0x0000
      GC map objects:  v0 ([sp + #36])
      0x00004059:                 83C41C    	       add esp, 28
      0x0000405c:                     C3    	       ret 
      0x0000405d:         64FF155C020000    	       call fs:[0x25c]  ; pTestSuspend
      suspend point dex PC: 0x0000
      GC map objects:  v0 ([sp + #36])
      0x00004064:                   EBD6    	       jmp -42 (0x0000403c)
1: Lcom/ljj/fixtest/MainActivity; (offset=0x00002d88) (type_idx=11) (StatusRetryVerificationAtRuntime) (OatClassAllCompiled)
  0: void com.ljj.fixtest.MainActivity.<init>() (dex_method_idx=12)
    DEX CODE:
      0x0000: 7010 0000 0200           	| invoke-direct {v2}, void android.app.Activity.<init>() // method@0
      0x0003: 6200 1600                	| sget-object  v0, Ljava/io/PrintStream; java.lang.System.out // field@22
      0x0005: 2201 1500                	| new-instance v1, com.ljj.hack.Hack // type@21
      0x0007: 7010 1c00 0100           	| invoke-direct {v1}, void com.ljj.hack.Hack.<init>() // method@28
      0x000a: 6e20 3600 1000           	| invoke-virtual {v0, v1}, void java.io.PrintStream.println(java.lang.Object) // method@54
      0x000d: 0e00                     	| return-void
    OatMethodOffsets (offset=0x00002d8c)
      code_offset: 0x0000408c 
      gc_map: (offset=0x00002e48)
    OatQuickMethodHeader (offset=0x00004070)
      mapping_table: (offset=0x000031ec)
      vmap_table: (offset=0x0000343c)
      v3/r5, v1/r6, v0/r7, v65535/r16
    QuickMethodFrameInfo
      frame_size_in_bytes: 48
      core_spill_mask: 0x000100e0 (r5, r6, r7, r16)
      fp_spill_mask: 0x00000000 
      vr_stack_locations:
      	locals: v0[sp + #20] v1[sp + #24]
      	ins: v2[sp + #52]
      	method*: v3[sp + #0]
      	outs: v0[sp + #4] v1[sp + #8]
    CODE: (code_offset=0x0000408c size_offset=0x00004088 size=172)...
      0x0000408c:         85842400E0FFFF    	       test eax, [esp + -8192]
      suspend point dex PC: 0x0000
      GC map objects:  v2 ([sp + #52])
      0x00004093:                 83EC2C    	       sub esp, 44
      0x00004096:               896C2420    	       mov [esp + 32], ebp
      0x0000409a:               89742424    	       mov [esp + 36], esi
      0x0000409e:               897C2428    	       mov [esp + 40], edi
      0x000040a2:                   8BE8    	       mov ebp, eax
      0x000040a4:                 890424    	       mov [esp], eax
      0x000040a7:               894C2434    	       mov [esp + 52], ecx
      0x000040ab:               8B4C2434    	       mov ecx, [esp + 52]
      0x000040af:                   8BC5    	       mov eax, ebp
      0x000040b1:                 8B4004    	       mov eax, [eax + 4]
      0x000040b4:                 8B400C    	       mov eax, [eax + 12]
      0x000040b7:                 FF5024    	       call [eax + 36]
      suspend point dex PC: 0x0000
      GC map objects:  v2 ([sp + #52])
      0x000040ba:                 8B4508    	       mov eax, [ebp + 8]
      0x000040bd:           8B80D4000000    	       mov eax, [eax + 212]
      0x000040c3:                   85C0    	       test eax, eax
      0x000040c5:                   7457    	       jz/eq +87 (0x0000411e)
      0x000040c7:         83B8840000000A    	       cmp [eax + 132], 10
      0x000040ce:                   7C4E    	       jl/nge +78 (0x0000411e)
      0x000040d0:           8BB8D0010000    	       mov edi, [eax + 464]
      0x000040d6:                   8BCD    	       mov ecx, ebp
      0x000040d8:             B815000000    	       mov eax, 21
      0x000040dd:         64FF1520010000    	       call fs:[0x120]  ; pAllocObjectWithAccessCheck
      suspend point dex PC: 0x0005
      GC map objects:  v0 (r7), v2 ([sp + #52])
      0x000040e4:                   8BF0    	       mov esi, eax
      0x000040e6:                   8BCE    	       mov ecx, esi
      0x000040e8:             B81C000000    	       mov eax, 28
      0x000040ed:         64FF1548020000    	       call fs:[0x248]  ; pInvokeDirectTrampolineWithAccessCheck
      suspend point dex PC: 0x0007
      GC map objects:  v0 (r7), v1 (r6), v2 ([sp + #52])
      0x000040f4:                   8BD6    	       mov edx, esi
      0x000040f6:                   8BCF    	       mov ecx, edi
      0x000040f8:                   8B01    	       mov eax, [ecx]
      suspend point dex PC: 0x000a
      GC map objects:  v0 (r7), v1 (r6), v2 ([sp + #52])
      0x000040fa:           8B8038020000    	       mov eax, [eax + 568]
      0x00004100:                 FF5024    	       call [eax + 36]
      suspend point dex PC: 0x000a
      GC map objects:  v0 (r7), v1 (r6), v2 ([sp + #52])
      0x00004103:     6466833D0000000000    	       cmpw fs:[0x0], 0  ; state_and_flags
      0x0000410c:                   751E    	       jnz/ne +30 (0x0000412c)
      0x0000410e:               8B6C2420    	       mov ebp, [esp + 32]
      0x00004112:               8B742424    	       mov esi, [esp + 36]
      0x00004116:               8B7C2428    	       mov edi, [esp + 40]
      0x0000411a:                 83C42C    	       add esp, 44
      0x0000411d:                     C3    	       ret 
      0x0000411e:             B832000000    	       mov eax, 50
      0x00004123:         64FF1540010000    	       call fs:[0x140]  ; pInitializeStaticStorage
      suspend point dex PC: 0x0003
      GC map objects:  v2 ([sp + #52])
      0x0000412a:                   EBA4    	       jmp -92 (0x000040d0)
      0x0000412c:         64FF155C020000    	       call fs:[0x25c]  ; pTestSuspend
      suspend point dex PC: 0x000d
      0x00004133:                   EBD9    	       jmp -39 (0x0000410e)
      0x00004135:                   0000    	       addb [eax], al
      0x00004137:                   0000    	       addb [eax], al
  1: void com.ljj.fixtest.MainActivity.onCreate(android.os.Bundle) (dex_method_idx=14)
    DEX CODE:
      0x0000: 6f20 0100 3200           	| invoke-super {v2, v3}, void android.app.Activity.onCreate(android.os.Bundle) // method@1
      0x0003: 1501 037f                	| const/high16 v1, #int +2130903040 // 0x7f030000
      0x0005: 6e20 0f00 1200           	| invoke-virtual {v2, v1}, void com.ljj.fixtest.MainActivity.setContentView(int) // method@15
      0x0008: 1501 067f                	| const/high16 v1, #int +2131099648 // 0x7f060000
      0x000a: 6e20 0d00 1200           	| invoke-virtual {v2, v1}, android.view.View com.ljj.fixtest.MainActivity.findViewById(int) // method@13
      0x000d: 0c00                     	| move-result-object v0
      0x000e: 1f00 0900                	| check-cast v0, android.widget.TextView // type@9
      0x0010: 2201 1400                	| new-instance v1, com.ljj.fixtest.Test // type@20
      0x0012: 7010 1900 0100           	| invoke-direct {v1}, void com.ljj.fixtest.Test.<init>() // method@25
      0x0015: 6e10 1b00 0100           	| invoke-virtual {v1}, java.lang.String com.ljj.fixtest.Test.showText() // method@27
      0x0018: 0c01                     	| move-result-object v1
      0x0019: 6e20 0900 1000           	| invoke-virtual {v0, v1}, void android.widget.TextView.setText(java.lang.CharSequence) // method@9
      0x001c: 0e00                     	| return-void
    OatMethodOffsets (offset=0x00002d90)
      code_offset: 0x0000415c 
      gc_map: (offset=0x00002e5c)
    OatQuickMethodHeader (offset=0x00004140)
      mapping_table: (offset=0x000031fe)
      vmap_table: (offset=0x00003438)
      v65535/r8
    QuickMethodFrameInfo
      frame_size_in_bytes: 32
      core_spill_mask: 0x00000100 (r8)
      fp_spill_mask: 0x00000000 
      vr_stack_locations:
      	locals: v0[sp + #16] v1[sp + #20]
      	ins: v2[sp + #36] v3[sp + #40]
      	method*: v4[sp + #0]
      	outs: v0[sp + #4] v1[sp + #8]
    CODE: (code_offset=0x0000415c size_offset=0x00004158 size=345)...
      0x0000415c:         85842400E0FFFF    	       test eax, [esp + -8192]
      suspend point dex PC: 0x0000
      GC map objects:  v2 ([sp + #36]), v3 ([sp + #40])
      0x00004163:                 83EC1C    	       sub esp, 28
      0x00004166:                 890424    	       mov [esp], eax
      0x00004169:               894C2424    	       mov [esp + 36], ecx
      0x0000416d:               89542428    	       mov [esp + 40], edx
      0x00004171:     6466833D0000000000    	       cmpw fs:[0x0], 0  ; state_and_flags
      0x0000417a:           0F8508010000    	       jnz/ne +264 (0x00004288)
      0x00004180:               8B442424    	       mov eax, [esp + 36]
      0x00004184:                   8500    	       test eax, [eax]
      suspend point dex PC: 0x0000
      GC map objects:  v2 ([sp + #36]), v3 ([sp + #40])
      0x00004186:               8944240C    	       mov [esp + 12], eax
      0x0000418a:               8B4C240C    	       mov ecx, [esp + 12]
      0x0000418e:               8B542428    	       mov edx, [esp + 40]
      0x00004192:                 8B0424    	       mov eax, [esp]
      0x00004195:                 8B4004    	       mov eax, [eax + 4]
      0x00004198:                 8B4010    	       mov eax, [eax + 16]
      0x0000419b:                 FF5024    	       call [eax + 36]
      suspend point dex PC: 0x0000
      GC map objects:  v2 ([sp + #36]), v3 ([sp + #40])
      0x0000419e:       C74424140000037F    	       mov [esp + 20], 2130903040
      0x000041a6:               8B442424    	       mov eax, [esp + 36]
      0x000041aa:                   8500    	       test eax, [eax]
      suspend point dex PC: 0x0005
      GC map objects:  v2 ([sp + #36]), v3 ([sp + #40])
      0x000041ac:               8944240C    	       mov [esp + 12], eax
      0x000041b0:               8B4C240C    	       mov ecx, [esp + 12]
      0x000041b4:               8B542414    	       mov edx, [esp + 20]
      0x000041b8:                   8B01    	       mov eax, [ecx]
      0x000041ba:           8B80D8060000    	       mov eax, [eax + 1752]
      0x000041c0:                 FF5024    	       call [eax + 36]
      suspend point dex PC: 0x0005
      GC map objects:  v2 ([sp + #36]), v3 ([sp + #40])
      0x000041c3:       C74424140000067F    	       mov [esp + 20], 2131099648
      0x000041cb:               8B442424    	       mov eax, [esp + 36]
      0x000041cf:                   8500    	       test eax, [eax]
      suspend point dex PC: 0x000a
      GC map objects:  v2 ([sp + #36]), v3 ([sp + #40])
      0x000041d1:               8944240C    	       mov [esp + 12], eax
      0x000041d5:               8B4C240C    	       mov ecx, [esp + 12]
      0x000041d9:               8B542414    	       mov edx, [esp + 20]
      0x000041dd:                   8B01    	       mov eax, [ecx]
      0x000041df:           8B8024040000    	       mov eax, [eax + 1060]
      0x000041e5:                 FF5024    	       call [eax + 36]
      suspend point dex PC: 0x000a
      GC map objects:  v2 ([sp + #36]), v3 ([sp + #40])
      0x000041e8:               89442410    	       mov [esp + 16], eax
      0x000041ec:                 8B0424    	       mov eax, [esp]
      0x000041ef:                 8B4008    	       mov eax, [eax + 8]
      0x000041f2:                 8B4030    	       mov eax, [eax + 48]
      0x000041f5:                   85C0    	       test eax, eax
      0x000041f7:           0F8497000000    	       jz/eq +151 (0x00004294)
      0x000041fd:               8944240C    	       mov [esp + 12], eax
      0x00004201:               8B442410    	       mov eax, [esp + 16]
      0x00004205:               8B4C240C    	       mov ecx, [esp + 12]
      0x00004209:                   85C0    	       test eax, eax
      0x0000420b:           0F840A000000    	       jz/eq +10 (0x0000421b)
      0x00004211:                   8B10    	       mov edx, [eax]
      0x00004213:                   3BD1    	       cmp edx, ecx
      0x00004215:           0F858A000000    	       jnz/ne +138 (0x000042a5)
      0x0000421b:                 8B0C24    	       mov ecx, [esp]
      0x0000421e:             B814000000    	       mov eax, 20
      0x00004223:         64FF1514010000    	       call fs:[0x114]  ; pAllocObject
      suspend point dex PC: 0x0010
      GC map objects:  v0 ([sp + #16]), v2 ([sp + #36]), v3 ([sp + #40])
      0x0000422a:               89442414    	       mov [esp + 20], eax
      0x0000422e:               8B442414    	       mov eax, [esp + 20]
      0x00004232:                   8500    	       test eax, [eax]
      suspend point dex PC: 0x0012
      GC map objects:  v0 ([sp + #16]), v1 ([sp + #20]), v2 ([sp + #36]), v3 ([sp + #40])
      0x00004234:               8944240C    	       mov [esp + 12], eax
      0x00004238:               8B4C240C    	       mov ecx, [esp + 12]
      0x0000423c:                 8B0424    	       mov eax, [esp]
      0x0000423f:                 8B4004    	       mov eax, [eax + 4]
      0x00004242:                 8B4070    	       mov eax, [eax + 112]
      0x00004245:                 FF5024    	       call [eax + 36]
      suspend point dex PC: 0x0012
      GC map objects:  v0 ([sp + #16]), v1 ([sp + #20]), v2 ([sp + #36]), v3 ([sp + #40])
      0x00004248:               8B442414    	       mov eax, [esp + 20]
      0x0000424c:                   8500    	       test eax, [eax]
      suspend point dex PC: 0x0015
      GC map objects:  v0 ([sp + #16]), v1 ([sp + #20]), v2 ([sp + #36]), v3 ([sp + #40])
      0x0000424e:               8944240C    	       mov [esp + 12], eax
      0x00004252:               8B4C240C    	       mov ecx, [esp + 12]
      0x00004256:                 8B0424    	       mov eax, [esp]
      0x00004259:                 8B4004    	       mov eax, [eax + 4]
      0x0000425c:                 8B4078    	       mov eax, [eax + 120]
      0x0000425f:                 FF5024    	       call [eax + 36]
      suspend point dex PC: 0x0015
      GC map objects:  v0 ([sp + #16]), v1 ([sp + #20]), v2 ([sp + #36]), v3 ([sp + #40])
      0x00004262:               89442414    	       mov [esp + 20], eax
      0x00004266:               8B442410    	       mov eax, [esp + 16]
      0x0000426a:                   8500    	       test eax, [eax]
      suspend point dex PC: 0x0019
      GC map objects:  v0 ([sp + #16]), v1 ([sp + #20]), v2 ([sp + #36]), v3 ([sp + #40])
      0x0000426c:               8944240C    	       mov [esp + 12], eax
      0x00004270:               8B4C240C    	       mov ecx, [esp + 12]
      0x00004274:               8B542414    	       mov edx, [esp + 20]
      0x00004278:                 8B0424    	       mov eax, [esp]
      0x0000427b:                 8B4004    	       mov eax, [eax + 4]
      0x0000427e:                 8B4030    	       mov eax, [eax + 48]
      0x00004281:                 FF5024    	       call [eax + 36]
      suspend point dex PC: 0x0019
      GC map objects:  v0 ([sp + #16]), v1 ([sp + #20]), v2 ([sp + #36]), v3 ([sp + #40])
      0x00004284:                 83C41C    	       add esp, 28
      0x00004287:                     C3    	       ret 
      0x00004288:         64FF155C020000    	       call fs:[0x25c]  ; pTestSuspend
      suspend point dex PC: 0x0000
      GC map objects:  v2 ([sp + #36]), v3 ([sp + #40])
      0x0000428f:             E9ECFEFFFF    	       jmp -276 (0x00004180)
      0x00004294:             B809000000    	       mov eax, 9
      0x00004299:         64FF1548010000    	       call fs:[0x148]  ; pInitializeType
      suspend point dex PC: 0x000e
      GC map objects:  v0 ([sp + #16]), v2 ([sp + #36]), v3 ([sp + #40])
      0x000042a0:             E958FFFFFF    	       jmp -168 (0x000041fd)
      0x000042a5:                   89C8    	       mov eax, ecx
      0x000042a7:                   89D1    	       mov ecx, edx
      0x000042a9:         64FF153C010000    	       call fs:[0x13c]  ; pCheckCast
      suspend point dex PC: 0x000e
      GC map objects:  v0 ([sp + #16]), v2 ([sp + #36]), v3 ([sp + #40])
      0x000042b0:             E966FFFFFF    	       jmp -154 (0x0000421b)
2: Lcom/ljj/fixtest/MyApplication; (offset=0x00002d94) (type_idx=12) (StatusVerified) (OatClassAllCompiled)
  0: void com.ljj.fixtest.MyApplication.<init>() (dex_method_idx=16)
    DEX CODE:
      0x0000: 7010 0200 0000           	| invoke-direct {v0}, void android.app.Application.<init>() // method@2
      0x0003: 0e00                     	| return-void
    OatMethodOffsets (offset=0x00002d98)
      code_offset: 0x000042dc 
      gc_map: (offset=0x00002e94)
    OatQuickMethodHeader (offset=0x000042c0)
      mapping_table: (offset=0x00003222)
      vmap_table: (offset=0x00003438)
      v65535/r8
    QuickMethodFrameInfo
      frame_size_in_bytes: 32
      core_spill_mask: 0x00000100 (r8)
      fp_spill_mask: 0x00000000 
      vr_stack_locations:
      	ins: v0[sp + #36]
      	method*: v1[sp + #0]
      	outs: v0[sp + #4]
    CODE: (code_offset=0x000042dc size_offset=0x000042d8 size=71)...
      0x000042dc:         85842400E0FFFF    	       test eax, [esp + -8192]
      suspend point dex PC: 0x0000
      GC map objects:  v0 ([sp + #36])
      0x000042e3:                 83EC1C    	       sub esp, 28
      0x000042e6:                 890424    	       mov [esp], eax
      0x000042e9:               894C2424    	       mov [esp + 36], ecx
      0x000042ed:     6466833D0000000000    	       cmpw fs:[0x0], 0  ; state_and_flags
      0x000042f6:           0F851E000000    	       jnz/ne +30 (0x0000431a)
      0x000042fc:               8B442424    	       mov eax, [esp + 36]
      0x00004300:                   8500    	       test eax, [eax]
      suspend point dex PC: 0x0000
      GC map objects:  v0 ([sp + #36])
      0x00004302:               89442414    	       mov [esp + 20], eax
      0x00004306:               8B4C2414    	       mov ecx, [esp + 20]
      0x0000430a:                 8B0424    	       mov eax, [esp]
      0x0000430d:                 8B4004    	       mov eax, [eax + 4]
      0x00004310:                 8B4014    	       mov eax, [eax + 20]
      0x00004313:                 FF5024    	       call [eax + 36]
      suspend point dex PC: 0x0000
      GC map objects:  v0 ([sp + #36])
      0x00004316:                 83C41C    	       add esp, 28
      0x00004319:                     C3    	       ret 
      0x0000431a:         64FF155C020000    	       call fs:[0x25c]  ; pTestSuspend
      suspend point dex PC: 0x0000
      GC map objects:  v0 ([sp + #36])
      0x00004321:                   EBD9    	       jmp -39 (0x000042fc)
  1: void com.ljj.fixtest.MyApplication.onCreate() (dex_method_idx=17)
    DEX CODE:
      0x0000: 6f10 0300 0300           	| invoke-super {v3}, void android.app.Application.onCreate() // method@3
      0x0003: 7110 2600 0300           	| invoke-static {v3}, void com.ljj.patch.util.HotFix.init(android.content.Context) // method@38
      0x0006: 2201 3100                	| new-instance v1, java.lang.StringBuilder // type@49
      0x0008: 7010 4100 0100           	| invoke-direct {v1}, void java.lang.StringBuilder.<init>() // method@65
      0x000b: 7100 0700 0000           	| invoke-static {}, java.io.File android.os.Environment.getExternalStorageDirectory() // method@7
      0x000e: 0c02                     	| move-result-object v2
      0x000f: 6e10 2f00 0200           	| invoke-virtual {v2}, java.lang.String java.io.File.getAbsolutePath() // method@47
      0x0012: 0c02                     	| move-result-object v2
      0x0013: 6e20 4300 2100           	| invoke-virtual {v1, v2}, java.lang.StringBuilder java.lang.StringBuilder.append(java.lang.String) // method@67
      0x0016: 0c01                     	| move-result-object v1
      0x0017: 6202 1500                	| sget-object  v2, Ljava/lang/String; java.io.File.separator // field@21
      0x0019: 6e20 4300 2100           	| invoke-virtual {v1, v2}, java.lang.StringBuilder java.lang.StringBuilder.append(java.lang.String) // method@67
      0x001c: 0c01                     	| move-result-object v1
      0x001d: 1a02 b200                	| const-string v2, "patch.dex" // string@178
      0x001f: 6e20 4300 2100           	| invoke-virtual {v1, v2}, java.lang.StringBuilder java.lang.StringBuilder.append(java.lang.String) // method@67
      0x0022: 0c01                     	| move-result-object v1
      0x0023: 6e10 4400 0100           	| invoke-virtual {v1}, java.lang.String java.lang.StringBuilder.toString() // method@68
      0x0026: 0c00                     	| move-result-object v0
      0x0027: 7120 2700 0300           	| invoke-static {v3, v0}, void com.ljj.patch.util.HotFix.inject(android.content.Context, java.lang.String) // method@39
      0x002a: 0e00                     	| return-void
    OatMethodOffsets (offset=0x00002d9c)
      code_offset: 0x0000434c 
      gc_map: (offset=0x00002ea0)
    OatQuickMethodHeader (offset=0x00004330)
      mapping_table: (offset=0x0000322e)
      vmap_table: (offset=0x00003438)
      v65535/r8
    QuickMethodFrameInfo
      frame_size_in_bytes: 48
      core_spill_mask: 0x00000100 (r8)
      fp_spill_mask: 0x00000000 
      vr_stack_locations:
      	locals: v0[sp + #28] v1[sp + #32] v2[sp + #36]
      	ins: v3[sp + #52]
      	method*: v4[sp + #0]
      	outs: v0[sp + #4] v1[sp + #8]
    CODE: (code_offset=0x0000434c size_offset=0x00004348 size=665)...
      0x0000434c:         85842400E0FFFF    	       test eax, [esp + -8192]
      suspend point dex PC: 0x0000
      GC map objects:  v3 ([sp + #52])
      0x00004353:                 83EC2C    	       sub esp, 44
      0x00004356:                 890424    	       mov [esp], eax
      0x00004359:               894C2434    	       mov [esp + 52], ecx
      0x0000435d:     6466833D0000000000    	       cmpw fs:[0x0], 0  ; state_and_flags
      0x00004366:           0F85D4010000    	       jnz/ne +468 (0x00004540)
      0x0000436c:               8B442434    	       mov eax, [esp + 52]
      0x00004370:                   8500    	       test eax, [eax]
      suspend point dex PC: 0x0000
      GC map objects:  v3 ([sp + #52])
      0x00004372:               89442418    	       mov [esp + 24], eax
      0x00004376:               8B4C2418    	       mov ecx, [esp + 24]
      0x0000437a:                 8B0424    	       mov eax, [esp]
      0x0000437d:                 8B4004    	       mov eax, [eax + 4]
      0x00004380:                 8B4018    	       mov eax, [eax + 24]
      0x00004383:                 FF5024    	       call [eax + 36]
      suspend point dex PC: 0x0000
      GC map objects:  v3 ([sp + #52])
      0x00004386:                 8B0424    	       mov eax, [esp]
      0x00004389:                 8B4008    	       mov eax, [eax + 8]
      0x0000438c:                 8B4078    	       mov eax, [eax + 120]
      0x0000438f:                   85C0    	       test eax, eax
      0x00004391:           0F84B5010000    	       jz/eq +437 (0x0000454c)
      0x00004397:         83B8840000000A    	       cmp [eax + 132], 10
      0x0000439e:           0F8CB9010000    	       jl/nge +441 (0x0000455d)
      0x000043a4:               8B4C2434    	       mov ecx, [esp + 52]
      0x000043a8:                 8B0424    	       mov eax, [esp]
      0x000043ab:                 8B4004    	       mov eax, [eax + 4]
      0x000043ae:           8B80A4000000    	       mov eax, [eax + 164]
      0x000043b4:                 FF5024    	       call [eax + 36]
      suspend point dex PC: 0x0003
      GC map objects:  v3 ([sp + #52])
      0x000043b7:                 8B0C24    	       mov ecx, [esp]
      0x000043ba:             B831000000    	       mov eax, 49
      0x000043bf:         64FF1514010000    	       call fs:[0x114]  ; pAllocObject
      suspend point dex PC: 0x0006
      GC map objects:  v3 ([sp + #52])
      0x000043c6:               89442420    	       mov [esp + 32], eax
      0x000043ca:               8B442420    	       mov eax, [esp + 32]
      0x000043ce:                   8500    	       test eax, [eax]
      suspend point dex PC: 0x0008
      GC map objects:  v1 ([sp + #32]), v3 ([sp + #52])
      0x000043d0:               89442418    	       mov [esp + 24], eax
      0x000043d4:               8B4C2418    	       mov ecx, [esp + 24]
      0x000043d8:                 8B0424    	       mov eax, [esp]
      0x000043db:                 8B4004    	       mov eax, [eax + 4]
      0x000043de:           8B8010010000    	       mov eax, [eax + 272]
      0x000043e4:                 FF5024    	       call [eax + 36]
      suspend point dex PC: 0x0008
      GC map objects:  v1 ([sp + #32]), v3 ([sp + #52])
      0x000043e7:                 8B0424    	       mov eax, [esp]
      0x000043ea:                 8B4008    	       mov eax, [eax + 8]
      0x000043ed:                 8B4024    	       mov eax, [eax + 36]
      0x000043f0:                   85C0    	       test eax, eax
      0x000043f2:           0F8476010000    	       jz/eq +374 (0x0000456e)
      0x000043f8:         83B8840000000A    	       cmp [eax + 132], 10
      0x000043ff:           0F8C7A010000    	       jl/nge +378 (0x0000457f)
      0x00004405:                 8B0424    	       mov eax, [esp]
      0x00004408:                 8B4004    	       mov eax, [eax + 4]
      0x0000440b:                 8B4028    	       mov eax, [eax + 40]
      0x0000440e:                 FF5024    	       call [eax + 36]
      suspend point dex PC: 0x000b
      GC map objects:  v1 ([sp + #32]), v3 ([sp + #52])
      0x00004411:               89442424    	       mov [esp + 36], eax
      0x00004415:               8B442424    	       mov eax, [esp + 36]
      0x00004419:                   8500    	       test eax, [eax]
      suspend point dex PC: 0x000f
      GC map objects:  v1 ([sp + #32]), v2 ([sp + #36]), v3 ([sp + #52])
      0x0000441b:               89442418    	       mov [esp + 24], eax
      0x0000441f:               8B4C2418    	       mov ecx, [esp + 24]
      0x00004423:                   8B01    	       mov eax, [ecx]
      0x00004425:           8B80E0010000    	       mov eax, [eax + 480]
      0x0000442b:                 FF5024    	       call [eax + 36]
      suspend point dex PC: 0x000f
      GC map objects:  v1 ([sp + #32]), v2 ([sp + #36]), v3 ([sp + #52])
      0x0000442e:               89442424    	       mov [esp + 36], eax
      0x00004432:               8B442420    	       mov eax, [esp + 32]
      0x00004436:                   8500    	       test eax, [eax]
      suspend point dex PC: 0x0013
      GC map objects:  v1 ([sp + #32]), v2 ([sp + #36]), v3 ([sp + #52])
      0x00004438:               89442418    	       mov [esp + 24], eax
      0x0000443c:               8B4C2418    	       mov ecx, [esp + 24]
      0x00004440:               8B542424    	       mov edx, [esp + 36]
      0x00004444:                 8B0424    	       mov eax, [esp]
      0x00004447:                 8B4004    	       mov eax, [eax + 4]
      0x0000444a:           8B8018010000    	       mov eax, [eax + 280]
      0x00004450:                 FF5024    	       call [eax + 36]
      suspend point dex PC: 0x0013
      GC map objects:  v1 ([sp + #32]), v2 ([sp + #36]), v3 ([sp + #52])
      0x00004453:               89442420    	       mov [esp + 32], eax
      0x00004457:                 8B0424    	       mov eax, [esp]
      0x0000445a:                 8B4008    	       mov eax, [eax + 8]
      0x0000445d:           8B8098000000    	       mov eax, [eax + 152]
      0x00004463:                   85C0    	       test eax, eax
      0x00004465:           0F8425010000    	       jz/eq +293 (0x00004590)
      0x0000446b:         83B8840000000A    	       cmp [eax + 132], 10
      0x00004472:           0F8C29010000    	       jl/nge +297 (0x000045a1)
      0x00004478:           8B886C020000    	       mov ecx, [eax + 620]
      0x0000447e:               894C2424    	       mov [esp + 36], ecx
      0x00004482:               8B442420    	       mov eax, [esp + 32]
      0x00004486:                   8500    	       test eax, [eax]
      suspend point dex PC: 0x0019
      GC map objects:  v1 ([sp + #32]), v2 ([sp + #36]), v3 ([sp + #52])
      0x00004488:               89442418    	       mov [esp + 24], eax
      0x0000448c:               8B4C2418    	       mov ecx, [esp + 24]
      0x00004490:               8B542424    	       mov edx, [esp + 36]
      0x00004494:                 8B0424    	       mov eax, [esp]
      0x00004497:                 8B4004    	       mov eax, [eax + 4]
      0x0000449a:           8B8018010000    	       mov eax, [eax + 280]
      0x000044a0:                 FF5024    	       call [eax + 36]
      suspend point dex PC: 0x0019
      GC map objects:  v1 ([sp + #32]), v2 ([sp + #36]), v3 ([sp + #52])
      0x000044a3:               89442420    	       mov [esp + 32], eax
      0x000044a7:                 8B0424    	       mov eax, [esp]
      0x000044aa:                   8B00    	       mov eax, [eax]
      0x000044ac:                 8B4014    	       mov eax, [eax + 20]
      0x000044af:           8B80D4020000    	       mov eax, [eax + 724]
      0x000044b5:                   85C0    	       test eax, eax
      0x000044b7:           0F84F5000000    	       jz/eq +245 (0x000045b2)
      0x000044bd:               89442424    	       mov [esp + 36], eax
      0x000044c1:               8B442420    	       mov eax, [esp + 32]
      0x000044c5:                   8500    	       test eax, [eax]
      suspend point dex PC: 0x001f
      GC map objects:  v1 ([sp + #32]), v2 ([sp + #36]), v3 ([sp + #52])
      0x000044c7:               89442418    	       mov [esp + 24], eax
      0x000044cb:               8B4C2418    	       mov ecx, [esp + 24]
      0x000044cf:               8B542424    	       mov edx, [esp + 36]
      0x000044d3:                 8B0424    	       mov eax, [esp]
      0x000044d6:                 8B4004    	       mov eax, [eax + 4]
      0x000044d9:           8B8018010000    	       mov eax, [eax + 280]
      0x000044df:                 FF5024    	       call [eax + 36]
      suspend point dex PC: 0x001f
      GC map objects:  v1 ([sp + #32]), v2 ([sp + #36]), v3 ([sp + #52])
      0x000044e2:               89442420    	       mov [esp + 32], eax
      0x000044e6:               8B442420    	       mov eax, [esp + 32]
      0x000044ea:                   8500    	       test eax, [eax]
      suspend point dex PC: 0x0023
      GC map objects:  v1 ([sp + #32]), v2 ([sp + #36]), v3 ([sp + #52])
      0x000044ec:               89442418    	       mov [esp + 24], eax
      0x000044f0:               8B4C2418    	       mov ecx, [esp + 24]
      0x000044f4:                 8B0424    	       mov eax, [esp]
      0x000044f7:                 8B4004    	       mov eax, [eax + 4]
      0x000044fa:           8B801C010000    	       mov eax, [eax + 284]
      0x00004500:                 FF5024    	       call [eax + 36]
      suspend point dex PC: 0x0023
      GC map objects:  v1 ([sp + #32]), v2 ([sp + #36]), v3 ([sp + #52])
      0x00004503:               8944241C    	       mov [esp + 28], eax
      0x00004507:                 8B0424    	       mov eax, [esp]
      0x0000450a:                 8B4008    	       mov eax, [eax + 8]
      0x0000450d:                 8B4078    	       mov eax, [eax + 120]
      0x00004510:                   85C0    	       test eax, eax
      0x00004512:           0F84AB000000    	       jz/eq +171 (0x000045c3)
      0x00004518:         83B8840000000A    	       cmp [eax + 132], 10
      0x0000451f:           0F8CAF000000    	       jl/nge +175 (0x000045d4)
      0x00004525:               8B4C2434    	       mov ecx, [esp + 52]
      0x00004529:               8B54241C    	       mov edx, [esp + 28]
      0x0000452d:                 8B0424    	       mov eax, [esp]
      0x00004530:                 8B4004    	       mov eax, [eax + 4]
      0x00004533:           8B80A8000000    	       mov eax, [eax + 168]
      0x00004539:                 FF5024    	       call [eax + 36]
      suspend point dex PC: 0x0027
      GC map objects:  v0 ([sp + #28]), v1 ([sp + #32]), v2 ([sp + #36]), v3 ([sp + #52])
      0x0000453c:                 83C42C    	       add esp, 44
      0x0000453f:                     C3    	       ret 
      0x00004540:         64FF155C020000    	       call fs:[0x25c]  ; pTestSuspend
      suspend point dex PC: 0x0000
      GC map objects:  v3 ([sp + #52])
      0x00004547:             E920FEFFFF    	       jmp -480 (0x0000436c)
      0x0000454c:             B81B000000    	       mov eax, 27
      0x00004551:         64FF1548010000    	       call fs:[0x148]  ; pInitializeType
      suspend point dex PC: 0x0003
      GC map objects:  v3 ([sp + #52])
      0x00004558:             E93AFEFFFF    	       jmp -454 (0x00004397)
      0x0000455d:             B81B000000    	       mov eax, 27
      0x00004562:         64FF1540010000    	       call fs:[0x140]  ; pInitializeStaticStorage
      suspend point dex PC: 0x0003
      GC map objects:  v3 ([sp + #52])
      0x00004569:             E936FEFFFF    	       jmp -458 (0x000043a4)
      0x0000456e:             B806000000    	       mov eax, 6
      0x00004573:         64FF1548010000    	       call fs:[0x148]  ; pInitializeType
      suspend point dex PC: 0x000b
      GC map objects:  v1 ([sp + #32]), v3 ([sp + #52])
      0x0000457a:             E979FEFFFF    	       jmp -391 (0x000043f8)
      0x0000457f:             B806000000    	       mov eax, 6
      0x00004584:         64FF1540010000    	       call fs:[0x140]  ; pInitializeStaticStorage
      suspend point dex PC: 0x000b
      GC map objects:  v1 ([sp + #32]), v3 ([sp + #52])
      0x0000458b:             E975FEFFFF    	       jmp -395 (0x00004405)
      0x00004590:             B823000000    	       mov eax, 35
      0x00004595:         64FF1548010000    	       call fs:[0x148]  ; pInitializeType
      suspend point dex PC: 0x0017
      GC map objects:  v1 ([sp + #32]), v2 ([sp + #36]), v3 ([sp + #52])
      0x0000459c:             E9CAFEFFFF    	       jmp -310 (0x0000446b)
      0x000045a1:             B823000000    	       mov eax, 35
      0x000045a6:         64FF1540010000    	       call fs:[0x140]  ; pInitializeStaticStorage
      suspend point dex PC: 0x0017
      GC map objects:  v1 ([sp + #32]), v2 ([sp + #36]), v3 ([sp + #52])
      0x000045ad:             E9C6FEFFFF    	       jmp -314 (0x00004478)
      0x000045b2:             B8B2000000    	       mov eax, 178
      0x000045b7:         64FF154C010000    	       call fs:[0x14c]  ; pResolveString
      suspend point dex PC: 0x001d
      GC map objects:  v1 ([sp + #32]), v2 ([sp + #36]), v3 ([sp + #52])
      0x000045be:             E9FAFEFFFF    	       jmp -262 (0x000044bd)
      0x000045c3:             B81B000000    	       mov eax, 27
      0x000045c8:         64FF1548010000    	       call fs:[0x148]  ; pInitializeType
      suspend point dex PC: 0x0027
      GC map objects:  v0 ([sp + #28]), v1 ([sp + #32]), v2 ([sp + #36]), v3 ([sp + #52])
      0x000045cf:             E944FFFFFF    	       jmp -188 (0x00004518)
      0x000045d4:             B81B000000    	       mov eax, 27
      0x000045d9:         64FF1540010000    	       call fs:[0x140]  ; pInitializeStaticStorage
      suspend point dex PC: 0x0027
      GC map objects:  v0 ([sp + #28]), v1 ([sp + #32]), v2 ([sp + #36]), v3 ([sp + #52])
      0x000045e0:             E940FFFFFF    	       jmp -192 (0x00004525)
3: Lcom/ljj/fixtest/R$attr; (offset=0x00002da0) (type_idx=13) (StatusInitialized) (OatClassAllCompiled)
  0: void com.ljj.fixtest.R$attr.<init>() (dex_method_idx=18)
    DEX CODE:
      0x0000: 7010 3f00 0000           	| invoke-direct {v0}, void java.lang.Object.<init>() // method@63
      0x0003: 0e00                     	| return-void
    OatMethodOffsets (offset=0x00002da4)
      code_offset: 0x0000460c 
      gc_map: (offset=0x00002e3c)
    OatQuickMethodHeader (offset=0x000045f0)
      mapping_table: (offset=0x000031e0)
      vmap_table: (offset=0x00003438)
      v65535/r8
    QuickMethodFrameInfo
      frame_size_in_bytes: 32
      core_spill_mask: 0x00000100 (r8)
      fp_spill_mask: 0x00000000 
      vr_stack_locations:
      	ins: v0[sp + #36]
      	method*: v1[sp + #0]
      	outs: v0[sp + #4]
    CODE: (code_offset=0x0000460c size_offset=0x00004608 size=74)...
      0x0000460c:         85842400E0FFFF    	       test eax, [esp + -8192]
      suspend point dex PC: 0x0000
      GC map objects:  v0 ([sp + #36])
      0x00004613:                 83EC1C    	       sub esp, 28
      0x00004616:                 890424    	       mov [esp], eax
      0x00004619:               894C2424    	       mov [esp + 36], ecx
      0x0000461d:     6466833D0000000000    	       cmpw fs:[0x0], 0  ; state_and_flags
      0x00004626:           0F8521000000    	       jnz/ne +33 (0x0000464d)
      0x0000462c:               8B442424    	       mov eax, [esp + 36]
      0x00004630:                   8500    	       test eax, [eax]
      suspend point dex PC: 0x0000
      GC map objects:  v0 ([sp + #36])
      0x00004632:               89442414    	       mov [esp + 20], eax
      0x00004636:               8B4C2414    	       mov ecx, [esp + 20]
      0x0000463a:                 8B0424    	       mov eax, [esp]
      0x0000463d:                 8B4004    	       mov eax, [eax + 4]
      0x00004640:           8B8008010000    	       mov eax, [eax + 264]
      0x00004646:                 FF5024    	       call [eax + 36]
      suspend point dex PC: 0x0000
      GC map objects:  v0 ([sp + #36])
      0x00004649:                 83C41C    	       add esp, 28
      0x0000464c:                     C3    	       ret 
      0x0000464d:         64FF155C020000    	       call fs:[0x25c]  ; pTestSuspend
      suspend point dex PC: 0x0000
      GC map objects:  v0 ([sp + #36])
      0x00004654:                   EBD6    	       jmp -42 (0x0000462c)
4: Lcom/ljj/fixtest/R$color; (offset=0x00002da8) (type_idx=14) (StatusVerified) (OatClassAllCompiled)
  0: void com.ljj.fixtest.R$color.<init>() (dex_method_idx=19)
    DEX CODE:
      0x0000: 7010 3f00 0000           	| invoke-direct {v0}, void java.lang.Object.<init>() // method@63
      0x0003: 0e00                     	| return-void
    OatMethodOffsets (offset=0x00002dac)
      code_offset: 0x0000467c 
      gc_map: (offset=0x00002e3c)
    OatQuickMethodHeader (offset=0x00004660)
      mapping_table: (offset=0x000031e0)
      vmap_table: (offset=0x00003438)
      v65535/r8
    QuickMethodFrameInfo
      frame_size_in_bytes: 32
      core_spill_mask: 0x00000100 (r8)
      fp_spill_mask: 0x00000000 
      vr_stack_locations:
      	ins: v0[sp + #36]
      	method*: v1[sp + #0]
      	outs: v0[sp + #4]
    CODE: (code_offset=0x0000467c size_offset=0x00004678 size=74)...
      0x0000467c:         85842400E0FFFF    	       test eax, [esp + -8192]
      suspend point dex PC: 0x0000
      GC map objects:  v0 ([sp + #36])
      0x00004683:                 83EC1C    	       sub esp, 28
      0x00004686:                 890424    	       mov [esp], eax
      0x00004689:               894C2424    	       mov [esp + 36], ecx
      0x0000468d:     6466833D0000000000    	       cmpw fs:[0x0], 0  ; state_and_flags
      0x00004696:           0F8521000000    	       jnz/ne +33 (0x000046bd)
      0x0000469c:               8B442424    	       mov eax, [esp + 36]
      0x000046a0:                   8500    	       test eax, [eax]
      suspend point dex PC: 0x0000
      GC map objects:  v0 ([sp + #36])
      0x000046a2:               89442414    	       mov [esp + 20], eax
      0x000046a6:               8B4C2414    	       mov ecx, [esp + 20]
      0x000046aa:                 8B0424    	       mov eax, [esp]
      0x000046ad:                 8B4004    	       mov eax, [eax + 4]
      0x000046b0:           8B8008010000    	       mov eax, [eax + 264]
      0x000046b6:                 FF5024    	       call [eax + 36]
      suspend point dex PC: 0x0000
      GC map objects:  v0 ([sp + #36])
      0x000046b9:                 83C41C    	       add esp, 28
      0x000046bc:                     C3    	       ret 
      0x000046bd:         64FF155C020000    	       call fs:[0x25c]  ; pTestSuspend
      suspend point dex PC: 0x0000
      GC map objects:  v0 ([sp + #36])
      0x000046c4:                   EBD6    	       jmp -42 (0x0000469c)
5: Lcom/ljj/fixtest/R$id; (offset=0x00002db0) (type_idx=15) (StatusVerified) (OatClassAllCompiled)
  0: void com.ljj.fixtest.R$id.<init>() (dex_method_idx=20)
    DEX CODE:
      0x0000: 7010 3f00 0000           	| invoke-direct {v0}, void java.lang.Object.<init>() // method@63
      0x0003: 0e00                     	| return-void
    OatMethodOffsets (offset=0x00002db4)
      code_offset: 0x000046ec 
      gc_map: (offset=0x00002e3c)
    OatQuickMethodHeader (offset=0x000046d0)
      mapping_table: (offset=0x000031e0)
      vmap_table: (offset=0x00003438)
      v65535/r8
    QuickMethodFrameInfo
      frame_size_in_bytes: 32
      core_spill_mask: 0x00000100 (r8)
      fp_spill_mask: 0x00000000 
      vr_stack_locations:
      	ins: v0[sp + #36]
      	method*: v1[sp + #0]
      	outs: v0[sp + #4]
    CODE: (code_offset=0x000046ec size_offset=0x000046e8 size=74)...
      0x000046ec:         85842400E0FFFF    	       test eax, [esp + -8192]
      suspend point dex PC: 0x0000
      GC map objects:  v0 ([sp + #36])
      0x000046f3:                 83EC1C    	       sub esp, 28
      0x000046f6:                 890424    	       mov [esp], eax
      0x000046f9:               894C2424    	       mov [esp + 36], ecx
      0x000046fd:     6466833D0000000000    	       cmpw fs:[0x0], 0  ; state_and_flags
      0x00004706:           0F8521000000    	       jnz/ne +33 (0x0000472d)
      0x0000470c:               8B442424    	       mov eax, [esp + 36]
      0x00004710:                   8500    	       test eax, [eax]
      suspend point dex PC: 0x0000
      GC map objects:  v0 ([sp + #36])
      0x00004712:               89442414    	       mov [esp + 20], eax
      0x00004716:               8B4C2414    	       mov ecx, [esp + 20]
      0x0000471a:                 8B0424    	       mov eax, [esp]
      0x0000471d:                 8B4004    	       mov eax, [eax + 4]
      0x00004720:           8B8008010000    	       mov eax, [eax + 264]
      0x00004726:                 FF5024    	       call [eax + 36]
      suspend point dex PC: 0x0000
      GC map objects:  v0 ([sp + #36])
      0x00004729:                 83C41C    	       add esp, 28
      0x0000472c:                     C3    	       ret 
      0x0000472d:         64FF155C020000    	       call fs:[0x25c]  ; pTestSuspend
      suspend point dex PC: 0x0000
      GC map objects:  v0 ([sp + #36])
      0x00004734:                   EBD6    	       jmp -42 (0x0000470c)
6: Lcom/ljj/fixtest/R$layout; (offset=0x00002db8) (type_idx=16) (StatusVerified) (OatClassAllCompiled)
  0: void com.ljj.fixtest.R$layout.<init>() (dex_method_idx=21)
    DEX CODE:
      0x0000: 7010 3f00 0000           	| invoke-direct {v0}, void java.lang.Object.<init>() // method@63
      0x0003: 0e00                     	| return-void
    OatMethodOffsets (offset=0x00002dbc)
      code_offset: 0x0000475c 
      gc_map: (offset=0x00002e3c)
    OatQuickMethodHeader (offset=0x00004740)
      mapping_table: (offset=0x000031e0)
      vmap_table: (offset=0x00003438)
      v65535/r8
    QuickMethodFrameInfo
      frame_size_in_bytes: 32
      core_spill_mask: 0x00000100 (r8)
      fp_spill_mask: 0x00000000 
      vr_stack_locations:
      	ins: v0[sp + #36]
      	method*: v1[sp + #0]
      	outs: v0[sp + #4]
    CODE: (code_offset=0x0000475c size_offset=0x00004758 size=74)...
      0x0000475c:         85842400E0FFFF    	       test eax, [esp + -8192]
      suspend point dex PC: 0x0000
      GC map objects:  v0 ([sp + #36])
      0x00004763:                 83EC1C    	       sub esp, 28
      0x00004766:                 890424    	       mov [esp], eax
      0x00004769:               894C2424    	       mov [esp + 36], ecx
      0x0000476d:     6466833D0000000000    	       cmpw fs:[0x0], 0  ; state_and_flags
      0x00004776:           0F8521000000    	       jnz/ne +33 (0x0000479d)
      0x0000477c:               8B442424    	       mov eax, [esp + 36]
      0x00004780:                   8500    	       test eax, [eax]
      suspend point dex PC: 0x0000
      GC map objects:  v0 ([sp + #36])
      0x00004782:               89442414    	       mov [esp + 20], eax
      0x00004786:               8B4C2414    	       mov ecx, [esp + 20]
      0x0000478a:                 8B0424    	       mov eax, [esp]
      0x0000478d:                 8B4004    	       mov eax, [eax + 4]
      0x00004790:           8B8008010000    	       mov eax, [eax + 264]
      0x00004796:                 FF5024    	       call [eax + 36]
      suspend point dex PC: 0x0000
      GC map objects:  v0 ([sp + #36])
      0x00004799:                 83C41C    	       add esp, 28
      0x0000479c:                     C3    	       ret 
      0x0000479d:         64FF155C020000    	       call fs:[0x25c]  ; pTestSuspend
      suspend point dex PC: 0x0000
      GC map objects:  v0 ([sp + #36])
      0x000047a4:                   EBD6    	       jmp -42 (0x0000477c)
7: Lcom/ljj/fixtest/R$mipmap; (offset=0x00002dc0) (type_idx=17) (StatusVerified) (OatClassAllCompiled)
  0: void com.ljj.fixtest.R$mipmap.<init>() (dex_method_idx=22)
    DEX CODE:
      0x0000: 7010 3f00 0000           	| invoke-direct {v0}, void java.lang.Object.<init>() // method@63
      0x0003: 0e00                     	| return-void
    OatMethodOffsets (offset=0x00002dc4)
      code_offset: 0x000047cc 
      gc_map: (offset=0x00002e3c)
    OatQuickMethodHeader (offset=0x000047b0)
      mapping_table: (offset=0x000031e0)
      vmap_table: (offset=0x00003438)
      v65535/r8
    QuickMethodFrameInfo
      frame_size_in_bytes: 32
      core_spill_mask: 0x00000100 (r8)
      fp_spill_mask: 0x00000000 
      vr_stack_locations:
      	ins: v0[sp + #36]
      	method*: v1[sp + #0]
      	outs: v0[sp + #4]
    CODE: (code_offset=0x000047cc size_offset=0x000047c8 size=74)...
      0x000047cc:         85842400E0FFFF    	       test eax, [esp + -8192]
      suspend point dex PC: 0x0000
      GC map objects:  v0 ([sp + #36])
      0x000047d3:                 83EC1C    	       sub esp, 28
      0x000047d6:                 890424    	       mov [esp], eax
      0x000047d9:               894C2424    	       mov [esp + 36], ecx
      0x000047dd:     6466833D0000000000    	       cmpw fs:[0x0], 0  ; state_and_flags
      0x000047e6:           0F8521000000    	       jnz/ne +33 (0x0000480d)
      0x000047ec:               8B442424    	       mov eax, [esp + 36]
      0x000047f0:                   8500    	       test eax, [eax]
      suspend point dex PC: 0x0000
      GC map objects:  v0 ([sp + #36])
      0x000047f2:               89442414    	       mov [esp + 20], eax
      0x000047f6:               8B4C2414    	       mov ecx, [esp + 20]
      0x000047fa:                 8B0424    	       mov eax, [esp]
      0x000047fd:                 8B4004    	       mov eax, [eax + 4]
      0x00004800:           8B8008010000    	       mov eax, [eax + 264]
      0x00004806:                 FF5024    	       call [eax + 36]
      suspend point dex PC: 0x0000
      GC map objects:  v0 ([sp + #36])
      0x00004809:                 83C41C    	       add esp, 28
      0x0000480c:                     C3    	       ret 
      0x0000480d:         64FF155C020000    	       call fs:[0x25c]  ; pTestSuspend
      suspend point dex PC: 0x0000
      GC map objects:  v0 ([sp + #36])
      0x00004814:                   EBD6    	       jmp -42 (0x000047ec)
8: Lcom/ljj/fixtest/R$string; (offset=0x00002dc8) (type_idx=18) (StatusVerified) (OatClassAllCompiled)
  0: void com.ljj.fixtest.R$string.<init>() (dex_method_idx=23)
    DEX CODE:
      0x0000: 7010 3f00 0000           	| invoke-direct {v0}, void java.lang.Object.<init>() // method@63
      0x0003: 0e00                     	| return-void
    OatMethodOffsets (offset=0x00002dcc)
      code_offset: 0x0000483c 
      gc_map: (offset=0x00002e3c)
    OatQuickMethodHeader (offset=0x00004820)
      mapping_table: (offset=0x000031e0)
      vmap_table: (offset=0x00003438)
      v65535/r8
    QuickMethodFrameInfo
      frame_size_in_bytes: 32
      core_spill_mask: 0x00000100 (r8)
      fp_spill_mask: 0x00000000 
      vr_stack_locations:
      	ins: v0[sp + #36]
      	method*: v1[sp + #0]
      	outs: v0[sp + #4]
    CODE: (code_offset=0x0000483c size_offset=0x00004838 size=74)...
      0x0000483c:         85842400E0FFFF    	       test eax, [esp + -8192]
      suspend point dex PC: 0x0000
      GC map objects:  v0 ([sp + #36])
      0x00004843:                 83EC1C    	       sub esp, 28
      0x00004846:                 890424    	       mov [esp], eax
      0x00004849:               894C2424    	       mov [esp + 36], ecx
      0x0000484d:     6466833D0000000000    	       cmpw fs:[0x0], 0  ; state_and_flags
      0x00004856:           0F8521000000    	       jnz/ne +33 (0x0000487d)
      0x0000485c:               8B442424    	       mov eax, [esp + 36]
      0x00004860:                   8500    	       test eax, [eax]
      suspend point dex PC: 0x0000
      GC map objects:  v0 ([sp + #36])
      0x00004862:               89442414    	       mov [esp + 20], eax
      0x00004866:               8B4C2414    	       mov ecx, [esp + 20]
      0x0000486a:                 8B0424    	       mov eax, [esp]
      0x0000486d:                 8B4004    	       mov eax, [eax + 4]
      0x00004870:           8B8008010000    	       mov eax, [eax + 264]
      0x00004876:                 FF5024    	       call [eax + 36]
      suspend point dex PC: 0x0000
      GC map objects:  v0 ([sp + #36])
      0x00004879:                 83C41C    	       add esp, 28
      0x0000487c:                     C3    	       ret 
      0x0000487d:         64FF155C020000    	       call fs:[0x25c]  ; pTestSuspend
      suspend point dex PC: 0x0000
      GC map objects:  v0 ([sp + #36])
      0x00004884:                   EBD6    	       jmp -42 (0x0000485c)
9: Lcom/ljj/fixtest/R; (offset=0x00002dd0) (type_idx=19) (StatusInitialized) (OatClassAllCompiled)
  0: void com.ljj.fixtest.R.<init>() (dex_method_idx=24)
    DEX CODE:
      0x0000: 7010 3f00 0000           	| invoke-direct {v0}, void java.lang.Object.<init>() // method@63
      0x0003: 0e00                     	| return-void
    OatMethodOffsets (offset=0x00002dd4)
      code_offset: 0x000048ac 
      gc_map: (offset=0x00002e3c)
    OatQuickMethodHeader (offset=0x00004890)
      mapping_table: (offset=0x000031e0)
      vmap_table: (offset=0x00003438)
      v65535/r8
    QuickMethodFrameInfo
      frame_size_in_bytes: 32
      core_spill_mask: 0x00000100 (r8)
      fp_spill_mask: 0x00000000 
      vr_stack_locations:
      	ins: v0[sp + #36]
      	method*: v1[sp + #0]
      	outs: v0[sp + #4]
    CODE: (code_offset=0x000048ac size_offset=0x000048a8 size=74)...
      0x000048ac:         85842400E0FFFF    	       test eax, [esp + -8192]
      suspend point dex PC: 0x0000
      GC map objects:  v0 ([sp + #36])
      0x000048b3:                 83EC1C    	       sub esp, 28
      0x000048b6:                 890424    	       mov [esp], eax
      0x000048b9:               894C2424    	       mov [esp + 36], ecx
      0x000048bd:     6466833D0000000000    	       cmpw fs:[0x0], 0  ; state_and_flags
      0x000048c6:           0F8521000000    	       jnz/ne +33 (0x000048ed)
      0x000048cc:               8B442424    	       mov eax, [esp + 36]
      0x000048d0:                   8500    	       test eax, [eax]
      suspend point dex PC: 0x0000
      GC map objects:  v0 ([sp + #36])
      0x000048d2:               89442414    	       mov [esp + 20], eax
      0x000048d6:               8B4C2414    	       mov ecx, [esp + 20]
      0x000048da:                 8B0424    	       mov eax, [esp]
      0x000048dd:                 8B4004    	       mov eax, [eax + 4]
      0x000048e0:           8B8008010000    	       mov eax, [eax + 264]
      0x000048e6:                 FF5024    	       call [eax + 36]
      suspend point dex PC: 0x0000
      GC map objects:  v0 ([sp + #36])
      0x000048e9:                 83C41C    	       add esp, 28
      0x000048ec:                     C3    	       ret 
      0x000048ed:         64FF155C020000    	       call fs:[0x25c]  ; pTestSuspend
      suspend point dex PC: 0x0000
      GC map objects:  v0 ([sp + #36])
      0x000048f4:                   EBD6    	       jmp -42 (0x000048cc)
10: Lcom/ljj/fixtest/Test; (offset=0x00002dd8) (type_idx=20) (StatusRetryVerificationAtRuntime) (OatClassAllCompiled)
  0: void com.ljj.fixtest.Test.<init>() (dex_method_idx=25)
    DEX CODE:
      0x0000: 7010 3f00 0200           	| invoke-direct {v2}, void java.lang.Object.<init>() // method@63
      0x0003: 6200 1600                	| sget-object  v0, Ljava/io/PrintStream; java.lang.System.out // field@22
      0x0005: 2201 1500                	| new-instance v1, com.ljj.hack.Hack // type@21
      0x0007: 7010 1c00 0100           	| invoke-direct {v1}, void com.ljj.hack.Hack.<init>() // method@28
      0x000a: 6e20 3600 1000           	| invoke-virtual {v0, v1}, void java.io.PrintStream.println(java.lang.Object) // method@54
      0x000d: 0e00                     	| return-void
    OatMethodOffsets (offset=0x00002ddc)
      code_offset: 0x0000491c 
      gc_map: (offset=0x00002efc)
    OatQuickMethodHeader (offset=0x00004900)
      mapping_table: (offset=0x0000326a)
      vmap_table: (offset=0x0000343c)
      v3/r5, v1/r6, v0/r7, v65535/r16
    QuickMethodFrameInfo
      frame_size_in_bytes: 48
      core_spill_mask: 0x000100e0 (r5, r6, r7, r16)
      fp_spill_mask: 0x00000000 
      vr_stack_locations:
      	locals: v0[sp + #20] v1[sp + #24]
      	ins: v2[sp + #52]
      	method*: v3[sp + #0]
      	outs: v0[sp + #4] v1[sp + #8]
    CODE: (code_offset=0x0000491c size_offset=0x00004918 size=172)...
      0x0000491c:         85842400E0FFFF    	       test eax, [esp + -8192]
      suspend point dex PC: 0x0000
      GC map objects:  v2 ([sp + #52])
      0x00004923:                 83EC2C    	       sub esp, 44
      0x00004926:               896C2420    	       mov [esp + 32], ebp
      0x0000492a:               89742424    	       mov [esp + 36], esi
      0x0000492e:               897C2428    	       mov [esp + 40], edi
      0x00004932:                   8BE8    	       mov ebp, eax
      0x00004934:                 890424    	       mov [esp], eax
      0x00004937:               894C2434    	       mov [esp + 52], ecx
      0x0000493b:               8B4C2434    	       mov ecx, [esp + 52]
      0x0000493f:                   8BC5    	       mov eax, ebp
      0x00004941:                 8B4004    	       mov eax, [eax + 4]
      0x00004944:           8B8008010000    	       mov eax, [eax + 264]
      0x0000494a:                 FF5024    	       call [eax + 36]
      suspend point dex PC: 0x0000
      GC map objects:  v2 ([sp + #52])
      0x0000494d:                 8B4508    	       mov eax, [ebp + 8]
      0x00004950:           8B80D4000000    	       mov eax, [eax + 212]
      0x00004956:                   85C0    	       test eax, eax
      0x00004958:                   7457    	       jz/eq +87 (0x000049b1)
      0x0000495a:         83B8840000000A    	       cmp [eax + 132], 10
      0x00004961:                   7C4E    	       jl/nge +78 (0x000049b1)
      0x00004963:           8BB8D0010000    	       mov edi, [eax + 464]
      0x00004969:                   8BCD    	       mov ecx, ebp
      0x0000496b:             B815000000    	       mov eax, 21
      0x00004970:         64FF1520010000    	       call fs:[0x120]  ; pAllocObjectWithAccessCheck
      suspend point dex PC: 0x0005
      GC map objects:  v0 (r7), v2 ([sp + #52])
      0x00004977:                   8BF0    	       mov esi, eax
      0x00004979:                   8BCE    	       mov ecx, esi
      0x0000497b:             B81C000000    	       mov eax, 28
      0x00004980:         64FF1548020000    	       call fs:[0x248]  ; pInvokeDirectTrampolineWithAccessCheck
      suspend point dex PC: 0x0007
      GC map objects:  v0 (r7), v1 (r6), v2 ([sp + #52])
      0x00004987:                   8BD6    	       mov edx, esi
      0x00004989:                   8BCF    	       mov ecx, edi
      0x0000498b:                   8B01    	       mov eax, [ecx]
      suspend point dex PC: 0x000a
      GC map objects:  v0 (r7), v1 (r6), v2 ([sp + #52])
      0x0000498d:           8B8038020000    	       mov eax, [eax + 568]
      0x00004993:                 FF5024    	       call [eax + 36]
      suspend point dex PC: 0x000a
      GC map objects:  v0 (r7), v1 (r6), v2 ([sp + #52])
      0x00004996:     6466833D0000000000    	       cmpw fs:[0x0], 0  ; state_and_flags
      0x0000499f:                   751E    	       jnz/ne +30 (0x000049bf)
      0x000049a1:               8B6C2420    	       mov ebp, [esp + 32]
      0x000049a5:               8B742424    	       mov esi, [esp + 36]
      0x000049a9:               8B7C2428    	       mov edi, [esp + 40]
      0x000049ad:                 83C42C    	       add esp, 44
      0x000049b0:                     C3    	       ret 
      0x000049b1:             B832000000    	       mov eax, 50
      0x000049b6:         64FF1540010000    	       call fs:[0x140]  ; pInitializeStaticStorage
      suspend point dex PC: 0x0003
      GC map objects:  v2 ([sp + #52])
      0x000049bd:                   EBA4    	       jmp -92 (0x00004963)
      0x000049bf:         64FF155C020000    	       call fs:[0x25c]  ; pTestSuspend
      suspend point dex PC: 0x000d
      0x000049c6:                   EBD9    	       jmp -39 (0x000049a1)
  1: java.lang.String com.ljj.fixtest.Test.showTest1() (dex_method_idx=26)
    DEX CODE:
      0x0000: 1a00 a200                	| const-string v0, "ljj" // string@162
      0x0002: 1a01 c200                	| const-string v1, "showTest1: " // string@194
      0x0004: 7120 0800 1000           	| invoke-static {v0, v1}, int android.util.Log.i(java.lang.String, java.lang.String) // method@8
      0x0007: 1a00 a200                	| const-string v0, "ljj" // string@162
      0x0009: 1a01 c300                	| const-string v1, "showTest2: " // string@195
      0x000b: 7120 0800 1000           	| invoke-static {v0, v1}, int android.util.Log.i(java.lang.String, java.lang.String) // method@8
      0x000e: 1a00 a200                	| const-string v0, "ljj" // string@162
      0x0010: 1a01 c400                	| const-string v1, "showTest3: " // string@196
      0x0012: 7120 0800 1000           	| invoke-static {v0, v1}, int android.util.Log.i(java.lang.String, java.lang.String) // method@8
      0x0015: 1a00 6800                	| const-string v0, "art address error" // string@104
      0x0017: 1100                     	| return-object v0
    OatMethodOffsets (offset=0x00002de0)
      code_offset: 0x000049ec 
      gc_map: (offset=0x00002f10)
    OatQuickMethodHeader (offset=0x000049d0)
      mapping_table: (offset=0x0000327c)
      vmap_table: (offset=0x00003438)
      v65535/r8
    QuickMethodFrameInfo
      frame_size_in_bytes: 32
      core_spill_mask: 0x00000100 (r8)
      fp_spill_mask: 0x00000000 
      vr_stack_locations:
      	locals: v0[sp + #16] v1[sp + #20]
      	ins: v2[sp + #36]
      	method*: v3[sp + #0]
      	outs: v0[sp + #4] v1[sp + #8]
    CODE: (code_offset=0x000049ec size_offset=0x000049e8 size=605)...
      0x000049ec:         85842400E0FFFF    	       test eax, [esp + -8192]
      suspend point dex PC: 0x0000
      GC map objects:  v2 ([sp + #36])
      0x000049f3:                 83EC1C    	       sub esp, 28
      0x000049f6:                 890424    	       mov [esp], eax
      0x000049f9:               894C2424    	       mov [esp + 36], ecx
      0x000049fd:     6466833D0000000000    	       cmpw fs:[0x0], 0  ; state_and_flags
      0x00004a06:           0F8554010000    	       jnz/ne +340 (0x00004b60)
      0x00004a0c:                 8B0424    	       mov eax, [esp]
      0x00004a0f:                   8B00    	       mov eax, [eax]
      0x00004a11:                 8B4014    	       mov eax, [eax + 20]
      0x00004a14:           8B8094020000    	       mov eax, [eax + 660]
      0x00004a1a:                   85C0    	       test eax, eax
      0x00004a1c:           0F844A010000    	       jz/eq +330 (0x00004b6c)
      0x00004a22:               89442410    	       mov [esp + 16], eax
      0x00004a26:                 8B0424    	       mov eax, [esp]
      0x00004a29:                   8B00    	       mov eax, [eax]
      0x00004a2b:                 8B4014    	       mov eax, [eax + 20]
      0x00004a2e:           8B8014030000    	       mov eax, [eax + 788]
      0x00004a34:                   85C0    	       test eax, eax
      0x00004a36:           0F8441010000    	       jz/eq +321 (0x00004b7d)
      0x00004a3c:               89442414    	       mov [esp + 20], eax
      0x00004a40:                 8B0424    	       mov eax, [esp]
      0x00004a43:                 8B4008    	       mov eax, [eax + 8]
      0x00004a46:                 8B4028    	       mov eax, [eax + 40]
      0x00004a49:                   85C0    	       test eax, eax
      0x00004a4b:           0F843D010000    	       jz/eq +317 (0x00004b8e)
      0x00004a51:         83B8840000000A    	       cmp [eax + 132], 10
      0x00004a58:           0F8C41010000    	       jl/nge +321 (0x00004b9f)
      0x00004a5e:               8B4C2410    	       mov ecx, [esp + 16]
      0x00004a62:               8B542414    	       mov edx, [esp + 20]
      0x00004a66:                 8B0424    	       mov eax, [esp]
      0x00004a69:                 8B4004    	       mov eax, [eax + 4]
      0x00004a6c:                 8B402C    	       mov eax, [eax + 44]
      0x00004a6f:                 FF5024    	       call [eax + 36]
      suspend point dex PC: 0x0004
      GC map objects:  v0 ([sp + #16]), v1 ([sp + #20]), v2 ([sp + #36])
      0x00004a72:                 8B0424    	       mov eax, [esp]
      0x00004a75:                   8B00    	       mov eax, [eax]
      0x00004a77:                 8B4014    	       mov eax, [eax + 20]
      0x00004a7a:           8B8094020000    	       mov eax, [eax + 660]
      0x00004a80:                   85C0    	       test eax, eax
      0x00004a82:           0F8428010000    	       jz/eq +296 (0x00004bb0)
      0x00004a88:               89442410    	       mov [esp + 16], eax
      0x00004a8c:                 8B0424    	       mov eax, [esp]
      0x00004a8f:                   8B00    	       mov eax, [eax]
      0x00004a91:                 8B4014    	       mov eax, [eax + 20]
      0x00004a94:           8B8018030000    	       mov eax, [eax + 792]
      0x00004a9a:                   85C0    	       test eax, eax
      0x00004a9c:           0F841F010000    	       jz/eq +287 (0x00004bc1)
      0x00004aa2:               89442414    	       mov [esp + 20], eax
      0x00004aa6:                 8B0424    	       mov eax, [esp]
      0x00004aa9:                 8B4008    	       mov eax, [eax + 8]
      0x00004aac:                 8B4028    	       mov eax, [eax + 40]
      0x00004aaf:                   85C0    	       test eax, eax
      0x00004ab1:           0F841B010000    	       jz/eq +283 (0x00004bd2)
      0x00004ab7:         83B8840000000A    	       cmp [eax + 132], 10
      0x00004abe:           0F8C1F010000    	       jl/nge +287 (0x00004be3)
      0x00004ac4:               8B4C2410    	       mov ecx, [esp + 16]
      0x00004ac8:               8B542414    	       mov edx, [esp + 20]
      0x00004acc:                 8B0424    	       mov eax, [esp]
      0x00004acf:                 8B4004    	       mov eax, [eax + 4]
      0x00004ad2:                 8B402C    	       mov eax, [eax + 44]
      0x00004ad5:                 FF5024    	       call [eax + 36]
      suspend point dex PC: 0x000b
      GC map objects:  v0 ([sp + #16]), v1 ([sp + #20]), v2 ([sp + #36])
      0x00004ad8:                 8B0424    	       mov eax, [esp]
      0x00004adb:                   8B00    	       mov eax, [eax]
      0x00004add:                 8B4014    	       mov eax, [eax + 20]
      0x00004ae0:           8B8094020000    	       mov eax, [eax + 660]
      0x00004ae6:                   85C0    	       test eax, eax
      0x00004ae8:           0F8406010000    	       jz/eq +262 (0x00004bf4)
      0x00004aee:               89442410    	       mov [esp + 16], eax
      0x00004af2:                 8B0424    	       mov eax, [esp]
      0x00004af5:                   8B00    	       mov eax, [eax]
      0x00004af7:                 8B4014    	       mov eax, [eax + 20]
      0x00004afa:           8B801C030000    	       mov eax, [eax + 796]
      0x00004b00:                   85C0    	       test eax, eax
      0x00004b02:           0F84FD000000    	       jz/eq +253 (0x00004c05)
      0x00004b08:               89442414    	       mov [esp + 20], eax
      0x00004b0c:                 8B0424    	       mov eax, [esp]
      0x00004b0f:                 8B4008    	       mov eax, [eax + 8]
      0x00004b12:                 8B4028    	       mov eax, [eax + 40]
      0x00004b15:                   85C0    	       test eax, eax
      0x00004b17:           0F84F9000000    	       jz/eq +249 (0x00004c16)
      0x00004b1d:         83B8840000000A    	       cmp [eax + 132], 10
      0x00004b24:           0F8CFD000000    	       jl/nge +253 (0x00004c27)
      0x00004b2a:               8B4C2410    	       mov ecx, [esp + 16]
      0x00004b2e:               8B542414    	       mov edx, [esp + 20]
      0x00004b32:                 8B0424    	       mov eax, [esp]
      0x00004b35:                 8B4004    	       mov eax, [eax + 4]
      0x00004b38:                 8B402C    	       mov eax, [eax + 44]
      0x00004b3b:                 FF5024    	       call [eax + 36]
      suspend point dex PC: 0x0012
      GC map objects:  v0 ([sp + #16]), v1 ([sp + #20]), v2 ([sp + #36])
      0x00004b3e:                 8B0424    	       mov eax, [esp]
      0x00004b41:                   8B00    	       mov eax, [eax]
      0x00004b43:                 8B4014    	       mov eax, [eax + 20]
      0x00004b46:           8B80AC010000    	       mov eax, [eax + 428]
      0x00004b4c:                   85C0    	       test eax, eax
      0x00004b4e:           0F84E4000000    	       jz/eq +228 (0x00004c38)
      0x00004b54:               89442410    	       mov [esp + 16], eax
      0x00004b58:               8B442410    	       mov eax, [esp + 16]
      0x00004b5c:                 83C41C    	       add esp, 28
      0x00004b5f:                     C3    	       ret 
      0x00004b60:         64FF155C020000    	       call fs:[0x25c]  ; pTestSuspend
      suspend point dex PC: 0x0000
      GC map objects:  v2 ([sp + #36])
      0x00004b67:             E9A0FEFFFF    	       jmp -352 (0x00004a0c)
      0x00004b6c:             B8A2000000    	       mov eax, 162
      0x00004b71:         64FF154C010000    	       call fs:[0x14c]  ; pResolveString
      suspend point dex PC: 0x0000
      GC map objects:  v2 ([sp + #36])
      0x00004b78:             E9A5FEFFFF    	       jmp -347 (0x00004a22)
      0x00004b7d:             B8C2000000    	       mov eax, 194
      0x00004b82:         64FF154C010000    	       call fs:[0x14c]  ; pResolveString
      suspend point dex PC: 0x0002
      GC map objects:  v0 ([sp + #16]), v2 ([sp + #36])
      0x00004b89:             E9AEFEFFFF    	       jmp -338 (0x00004a3c)
      0x00004b8e:             B807000000    	       mov eax, 7
      0x00004b93:         64FF1548010000    	       call fs:[0x148]  ; pInitializeType
      suspend point dex PC: 0x0004
      GC map objects:  v0 ([sp + #16]), v1 ([sp + #20]), v2 ([sp + #36])
      0x00004b9a:             E9B2FEFFFF    	       jmp -334 (0x00004a51)
      0x00004b9f:             B807000000    	       mov eax, 7
      0x00004ba4:         64FF1540010000    	       call fs:[0x140]  ; pInitializeStaticStorage
      suspend point dex PC: 0x0004
      GC map objects:  v0 ([sp + #16]), v1 ([sp + #20]), v2 ([sp + #36])
      0x00004bab:             E9AEFEFFFF    	       jmp -338 (0x00004a5e)
      0x00004bb0:             B8A2000000    	       mov eax, 162
      0x00004bb5:         64FF154C010000    	       call fs:[0x14c]  ; pResolveString
      suspend point dex PC: 0x0007
      GC map objects:  v0 ([sp + #16]), v1 ([sp + #20]), v2 ([sp + #36])
      0x00004bbc:             E9C7FEFFFF    	       jmp -313 (0x00004a88)
      0x00004bc1:             B8C3000000    	       mov eax, 195
      0x00004bc6:         64FF154C010000    	       call fs:[0x14c]  ; pResolveString
      suspend point dex PC: 0x0009
      GC map objects:  v0 ([sp + #16]), v1 ([sp + #20]), v2 ([sp + #36])
      0x00004bcd:             E9D0FEFFFF    	       jmp -304 (0x00004aa2)
      0x00004bd2:             B807000000    	       mov eax, 7
      0x00004bd7:         64FF1548010000    	       call fs:[0x148]  ; pInitializeType
      suspend point dex PC: 0x000b
      GC map objects:  v0 ([sp + #16]), v1 ([sp + #20]), v2 ([sp + #36])
      0x00004bde:             E9D4FEFFFF    	       jmp -300 (0x00004ab7)
      0x00004be3:             B807000000    	       mov eax, 7
      0x00004be8:         64FF1540010000    	       call fs:[0x140]  ; pInitializeStaticStorage
      suspend point dex PC: 0x000b
      GC map objects:  v0 ([sp + #16]), v1 ([sp + #20]), v2 ([sp + #36])
      0x00004bef:             E9D0FEFFFF    	       jmp -304 (0x00004ac4)
      0x00004bf4:             B8A2000000    	       mov eax, 162
      0x00004bf9:         64FF154C010000    	       call fs:[0x14c]  ; pResolveString
      suspend point dex PC: 0x000e
      GC map objects:  v0 ([sp + #16]), v1 ([sp + #20]), v2 ([sp + #36])
      0x00004c00:             E9E9FEFFFF    	       jmp -279 (0x00004aee)
      0x00004c05:             B8C4000000    	       mov eax, 196
      0x00004c0a:         64FF154C010000    	       call fs:[0x14c]  ; pResolveString
      suspend point dex PC: 0x0010
      GC map objects:  v0 ([sp + #16]), v1 ([sp + #20]), v2 ([sp + #36])
      0x00004c11:             E9F2FEFFFF    	       jmp -270 (0x00004b08)
      0x00004c16:             B807000000    	       mov eax, 7
      0x00004c1b:         64FF1548010000    	       call fs:[0x148]  ; pInitializeType
      suspend point dex PC: 0x0012
      GC map objects:  v0 ([sp + #16]), v1 ([sp + #20]), v2 ([sp + #36])
      0x00004c22:             E9F6FEFFFF    	       jmp -266 (0x00004b1d)
      0x00004c27:             B807000000    	       mov eax, 7
      0x00004c2c:         64FF1540010000    	       call fs:[0x140]  ; pInitializeStaticStorage
      suspend point dex PC: 0x0012
      GC map objects:  v0 ([sp + #16]), v1 ([sp + #20]), v2 ([sp + #36])
      0x00004c33:             E9F2FEFFFF    	       jmp -270 (0x00004b2a)
      0x00004c38:             B868000000    	       mov eax, 104
      0x00004c3d:         64FF154C010000    	       call fs:[0x14c]  ; pResolveString
      suspend point dex PC: 0x0015
      GC map objects:  v0 ([sp + #16]), v1 ([sp + #20]), v2 ([sp + #36])
      0x00004c44:             E90BFFFFFF    	       jmp -245 (0x00004b54)
  2: java.lang.String com.ljj.fixtest.Test.showText() (dex_method_idx=27)
    DEX CODE:
      0x0000: 1a00 1100                	| const-string v0, "I am an error" // string@17
      0x0002: 1100                     	| return-object v0
    OatMethodOffsets (offset=0x00002de4)
      code_offset: 0x00004c6c 
      gc_map: (offset=0x00002f4c)
    OatQuickMethodHeader (offset=0x00004c50)
      mapping_table: (offset=0x000032a4)
      vmap_table: (offset=0x00003438)
      v65535/r8
    QuickMethodFrameInfo
      frame_size_in_bytes: 16
      core_spill_mask: 0x00000100 (r8)
      fp_spill_mask: 0x00000000 
      vr_stack_locations:
      	locals: v0[sp + #4]
      	ins: v1[sp + #20]
      	method*: v2[sp + #0]
    CODE: (code_offset=0x00004c6c size_offset=0x00004c68 size=86)...
      0x00004c6c:         85842400E0FFFF    	       test eax, [esp + -8192]
      suspend point dex PC: 0x0000
      GC map objects:  v1 ([sp + #20])
      0x00004c73:                 83EC0C    	       sub esp, 12
      0x00004c76:                 890424    	       mov [esp], eax
      0x00004c79:               894C2414    	       mov [esp + 20], ecx
      0x00004c7d:     6466833D0000000000    	       cmpw fs:[0x0], 0  ; state_and_flags
      0x00004c86:           0F851F000000    	       jnz/ne +31 (0x00004cab)
      0x00004c8c:                 8B0424    	       mov eax, [esp]
      0x00004c8f:                   8B00    	       mov eax, [eax]
      0x00004c91:                 8B4014    	       mov eax, [eax + 20]
      0x00004c94:                 8B4050    	       mov eax, [eax + 80]
      0x00004c97:                   85C0    	       test eax, eax
      0x00004c99:           0F8415000000    	       jz/eq +21 (0x00004cb4)
      0x00004c9f:               89442404    	       mov [esp + 4], eax
      0x00004ca3:               8B442404    	       mov eax, [esp + 4]
      0x00004ca7:                 83C40C    	       add esp, 12
      0x00004caa:                     C3    	       ret 
      0x00004cab:         64FF155C020000    	       call fs:[0x25c]  ; pTestSuspend
      suspend point dex PC: 0x0000
      GC map objects:  v1 ([sp + #20])
      0x00004cb2:                   EBD8    	       jmp -40 (0x00004c8c)
      0x00004cb4:             B811000000    	       mov eax, 17
      0x00004cb9:         64FF154C010000    	       call fs:[0x14c]  ; pResolveString
      suspend point dex PC: 0x0000
      GC map objects:  v1 ([sp + #20])
      0x00004cc0:                   EBDD    	       jmp -35 (0x00004c9f)
11: Lcom/ljj/patch/BuildConfig; (offset=0x00002de8) (type_idx=22) (StatusVerified) (OatClassAllCompiled)
  0: void com.ljj.patch.BuildConfig.<init>() (dex_method_idx=29)
    DEX CODE:
      0x0000: 7010 3f00 0000           	| invoke-direct {v0}, void java.lang.Object.<init>() // method@63
      0x0003: 0e00                     	| return-void
    OatMethodOffsets (offset=0x00002dec)
      code_offset: 0x00004cec 
      gc_map: (offset=0x00002e3c)
    OatQuickMethodHeader (offset=0x00004cd0)
      mapping_table: (offset=0x000031e0)
      vmap_table: (offset=0x00003438)
      v65535/r8
    QuickMethodFrameInfo
      frame_size_in_bytes: 32
      core_spill_mask: 0x00000100 (r8)
      fp_spill_mask: 0x00000000 
      vr_stack_locations:
      	ins: v0[sp + #36]
      	method*: v1[sp + #0]
      	outs: v0[sp + #4]
    CODE: (code_offset=0x00004cec size_offset=0x00004ce8 size=74)...
      0x00004cec:         85842400E0FFFF    	       test eax, [esp + -8192]
      suspend point dex PC: 0x0000
      GC map objects:  v0 ([sp + #36])
      0x00004cf3:                 83EC1C    	       sub esp, 28
      0x00004cf6:                 890424    	       mov [esp], eax
      0x00004cf9:               894C2424    	       mov [esp + 36], ecx
      0x00004cfd:     6466833D0000000000    	       cmpw fs:[0x0], 0  ; state_and_flags
      0x00004d06:           0F8521000000    	       jnz/ne +33 (0x00004d2d)
      0x00004d0c:               8B442424    	       mov eax, [esp + 36]
      0x00004d10:                   8500    	       test eax, [eax]
      suspend point dex PC: 0x0000
      GC map objects:  v0 ([sp + #36])
      0x00004d12:               89442414    	       mov [esp + 20], eax
      0x00004d16:               8B4C2414    	       mov ecx, [esp + 20]
      0x00004d1a:                 8B0424    	       mov eax, [esp]
      0x00004d1d:                 8B4004    	       mov eax, [eax + 4]
      0x00004d20:           8B8008010000    	       mov eax, [eax + 264]
      0x00004d26:                 FF5024    	       call [eax + 36]
      suspend point dex PC: 0x0000
      GC map objects:  v0 ([sp + #36])
      0x00004d29:                 83C41C    	       add esp, 28
      0x00004d2c:                     C3    	       ret 
      0x00004d2d:         64FF155C020000    	       call fs:[0x25c]  ; pTestSuspend
      suspend point dex PC: 0x0000
      GC map objects:  v0 ([sp + #36])
      0x00004d34:                   EBD6    	       jmp -42 (0x00004d0c)
12: Lcom/ljj/patch/R$string; (offset=0x00002df0) (type_idx=23) (StatusVerified) (OatClassAllCompiled)
  0: void com.ljj.patch.R$string.<init>() (dex_method_idx=30)
    DEX CODE:
      0x0000: 7010 3f00 0000           	| invoke-direct {v0}, void java.lang.Object.<init>() // method@63
      0x0003: 0e00                     	| return-void
    OatMethodOffsets (offset=0x00002df4)
      code_offset: 0x00004d5c 
      gc_map: (offset=0x00002e3c)
    OatQuickMethodHeader (offset=0x00004d40)
      mapping_table: (offset=0x000031e0)
      vmap_table: (offset=0x00003438)
      v65535/r8
    QuickMethodFrameInfo
      frame_size_in_bytes: 32
      core_spill_mask: 0x00000100 (r8)
      fp_spill_mask: 0x00000000 
      vr_stack_locations:
      	ins: v0[sp + #36]
      	method*: v1[sp + #0]
      	outs: v0[sp + #4]
    CODE: (code_offset=0x00004d5c size_offset=0x00004d58 size=74)...
      0x00004d5c:         85842400E0FFFF    	       test eax, [esp + -8192]
      suspend point dex PC: 0x0000
      GC map objects:  v0 ([sp + #36])
      0x00004d63:                 83EC1C    	       sub esp, 28
      0x00004d66:                 890424    	       mov [esp], eax
      0x00004d69:               894C2424    	       mov [esp + 36], ecx
      0x00004d6d:     6466833D0000000000    	       cmpw fs:[0x0], 0  ; state_and_flags
      0x00004d76:           0F8521000000    	       jnz/ne +33 (0x00004d9d)
      0x00004d7c:               8B442424    	       mov eax, [esp + 36]
      0x00004d80:                   8500    	       test eax, [eax]
      suspend point dex PC: 0x0000
      GC map objects:  v0 ([sp + #36])
      0x00004d82:               89442414    	       mov [esp + 20], eax
      0x00004d86:               8B4C2414    	       mov ecx, [esp + 20]
      0x00004d8a:                 8B0424    	       mov eax, [esp]
      0x00004d8d:                 8B4004    	       mov eax, [eax + 4]
      0x00004d90:           8B8008010000    	       mov eax, [eax + 264]
      0x00004d96:                 FF5024    	       call [eax + 36]
      suspend point dex PC: 0x0000
      GC map objects:  v0 ([sp + #36])
      0x00004d99:                 83C41C    	       add esp, 28
      0x00004d9c:                     C3    	       ret 
      0x00004d9d:         64FF155C020000    	       call fs:[0x25c]  ; pTestSuspend
      suspend point dex PC: 0x0000
      GC map objects:  v0 ([sp + #36])
      0x00004da4:                   EBD6    	       jmp -42 (0x00004d7c)
13: Lcom/ljj/patch/R; (offset=0x00002df8) (type_idx=24) (StatusInitialized) (OatClassAllCompiled)
  0: void com.ljj.patch.R.<init>() (dex_method_idx=31)
    DEX CODE:
      0x0000: 7010 3f00 0000           	| invoke-direct {v0}, void java.lang.Object.<init>() // method@63
      0x0003: 0e00                     	| return-void
    OatMethodOffsets (offset=0x00002dfc)
      code_offset: 0x00004dcc 
      gc_map: (offset=0x00002e3c)
    OatQuickMethodHeader (offset=0x00004db0)
      mapping_table: (offset=0x000031e0)
      vmap_table: (offset=0x00003438)
      v65535/r8
    QuickMethodFrameInfo
      frame_size_in_bytes: 32
      core_spill_mask: 0x00000100 (r8)
      fp_spill_mask: 0x00000000 
      vr_stack_locations:
      	ins: v0[sp + #36]
      	method*: v1[sp + #0]
      	outs: v0[sp + #4]
    CODE: (code_offset=0x00004dcc size_offset=0x00004dc8 size=74)...
      0x00004dcc:         85842400E0FFFF    	       test eax, [esp + -8192]
      suspend point dex PC: 0x0000
      GC map objects:  v0 ([sp + #36])
      0x00004dd3:                 83EC1C    	       sub esp, 28
      0x00004dd6:                 890424    	       mov [esp], eax
      0x00004dd9:               894C2424    	       mov [esp + 36], ecx
      0x00004ddd:     6466833D0000000000    	       cmpw fs:[0x0], 0  ; state_and_flags
      0x00004de6:           0F8521000000    	       jnz/ne +33 (0x00004e0d)
      0x00004dec:               8B442424    	       mov eax, [esp + 36]
      0x00004df0:                   8500    	       test eax, [eax]
      suspend point dex PC: 0x0000
      GC map objects:  v0 ([sp + #36])
      0x00004df2:               89442414    	       mov [esp + 20], eax
      0x00004df6:               8B4C2414    	       mov ecx, [esp + 20]
      0x00004dfa:                 8B0424    	       mov eax, [esp]
      0x00004dfd:                 8B4004    	       mov eax, [eax + 4]
      0x00004e00:           8B8008010000    	       mov eax, [eax + 264]
      0x00004e06:                 FF5024    	       call [eax + 36]
      suspend point dex PC: 0x0000
      GC map objects:  v0 ([sp + #36])
      0x00004e09:                 83C41C    	       add esp, 28
      0x00004e0c:                     C3    	       ret 
      0x00004e0d:         64FF155C020000    	       call fs:[0x25c]  ; pTestSuspend
      suspend point dex PC: 0x0000
      GC map objects:  v0 ([sp + #36])
      0x00004e14:                   EBD6    	       jmp -42 (0x00004dec)
14: Lcom/ljj/patch/util/AssetUtils; (offset=0x00002e00) (type_idx=25) (StatusInitialized) (OatClassAllCompiled)
  0: void com.ljj.patch.util.AssetUtils.<init>() (dex_method_idx=32)
    DEX CODE:
      0x0000: 7010 3f00 0000           	| invoke-direct {v0}, void java.lang.Object.<init>() // method@63
      0x0003: 0e00                     	| return-void
    OatMethodOffsets (offset=0x00002e04)
      code_offset: 0x00004e3c 
      gc_map: (offset=0x00002e3c)
    OatQuickMethodHeader (offset=0x00004e20)
      mapping_table: (offset=0x000031e0)
      vmap_table: (offset=0x00003438)
      v65535/r8
    QuickMethodFrameInfo
      frame_size_in_bytes: 32
      core_spill_mask: 0x00000100 (r8)
      fp_spill_mask: 0x00000000 
      vr_stack_locations:
      	ins: v0[sp + #36]
      	method*: v1[sp + #0]
      	outs: v0[sp + #4]
    CODE: (code_offset=0x00004e3c size_offset=0x00004e38 size=74)...
      0x00004e3c:         85842400E0FFFF    	       test eax, [esp + -8192]
      suspend point dex PC: 0x0000
      GC map objects:  v0 ([sp + #36])
      0x00004e43:                 83EC1C    	       sub esp, 28
      0x00004e46:                 890424    	       mov [esp], eax
      0x00004e49:               894C2424    	       mov [esp + 36], ecx
      0x00004e4d:     6466833D0000000000    	       cmpw fs:[0x0], 0  ; state_and_flags
      0x00004e56:           0F8521000000    	       jnz/ne +33 (0x00004e7d)
      0x00004e5c:               8B442424    	       mov eax, [esp + 36]
      0x00004e60:                   8500    	       test eax, [eax]
      suspend point dex PC: 0x0000
      GC map objects:  v0 ([sp + #36])
      0x00004e62:               89442414    	       mov [esp + 20], eax
      0x00004e66:               8B4C2414    	       mov ecx, [esp + 20]
      0x00004e6a:                 8B0424    	       mov eax, [esp]
      0x00004e6d:                 8B4004    	       mov eax, [eax + 4]
      0x00004e70:           8B8008010000    	       mov eax, [eax + 264]
      0x00004e76:                 FF5024    	       call [eax + 36]
      suspend point dex PC: 0x0000
      GC map objects:  v0 ([sp + #36])
      0x00004e79:                 83C41C    	       add esp, 28
      0x00004e7c:                     C3    	       ret 
      0x00004e7d:         64FF155C020000    	       call fs:[0x25c]  ; pTestSuspend
      suspend point dex PC: 0x0000
      GC map objects:  v0 ([sp + #36])
      0x00004e84:                   EBD6    	       jmp -42 (0x00004e5c)
  1: void com.ljj.patch.util.AssetUtils.copyAssets(android.content.Context, java.lang.String, java.lang.String) (dex_method_idx=33)
    DEX CODE:
      0x0000: 2201 2300                	| new-instance v1, java.io.File // type@35
      0x0002: 7020 2d00 8100           	| invoke-direct {v1, v8}, void java.io.File.<init>(java.lang.String) // method@45
      0x0005: 2204 2400                	| new-instance v4, java.io.FileOutputStream // type@36
      0x0007: 7020 3000 1400           	| invoke-direct {v4, v1}, void java.io.FileOutputStream.<init>(java.io.File) // method@48
      0x000a: 6e10 0400 0600           	| invoke-virtual {v6}, android.content.res.AssetManager android.content.Context.getAssets() // method@4
      0x000d: 0c05                     	| move-result-object v5
      0x000e: 6e20 0600 7500           	| invoke-virtual {v5, v7}, java.io.InputStream android.content.res.AssetManager.open(java.lang.String) // method@6
      0x0011: 0c02                     	| move-result-object v2
      0x0012: 1305 0004                	| const/16 v5, #+1024
      0x0014: 2350 3700                	| new-array v0, v5, byte[] // type@55
      0x0016: 6e20 3500 0200           	| invoke-virtual {v2, v0}, int java.io.InputStream.read(byte[]) // method@53
      0x0019: 0a03                     	| move-result v3
      0x001a: 12f5                     	| const/4 v5, #-1
      0x001b: 3253 0700                	| if-eq v3, v5, +7
      0x001d: 1205                     	| const/4 v5, #+0
      0x001e: 6e40 3200 0435           	| invoke-virtual {v4, v0, v5, v3}, void java.io.FileOutputStream.write(byte[], int, int) // method@50
      0x0021: 28f5                     	| goto -11
      0x0022: 6e10 3400 0200           	| invoke-virtual {v2}, void java.io.InputStream.close() // method@52
      0x0025: 6e10 3100 0400           	| invoke-virtual {v4}, void java.io.FileOutputStream.close() // method@49
      0x0028: 0e00                     	| return-void
    OatMethodOffsets (offset=0x00002e08)
      code_offset: 0x00004eac 
      gc_map: (offset=0x00002f58)
    OatQuickMethodHeader (offset=0x00004e90)
      mapping_table: (offset=0x000032ac)
      vmap_table: (offset=0x00003438)
      v65535/r8
    QuickMethodFrameInfo
      frame_size_in_bytes: 64
      core_spill_mask: 0x00000100 (r8)
      fp_spill_mask: 0x00000000 
      vr_stack_locations:
      	locals: v0[sp + #32] v1[sp + #36] v2[sp + #40] v3[sp + #44] v4[sp + #48] v5[sp + #52]
      	ins: v6[sp + #68] v7[sp + #72] v8[sp + #76]
      	method*: v9[sp + #0]
      	outs: v0[sp + #4] v1[sp + #8] v2[sp + #12] v3[sp + #16]
    CODE: (code_offset=0x00004eac size_offset=0x00004ea8 size=452)...
      0x00004eac:         85842400E0FFFF    	       test eax, [esp + -8192]
      suspend point dex PC: 0x0000
      GC map objects:  v6 ([sp + #68]), v7 ([sp + #72]), v8 ([sp + #76])
      0x00004eb3:                 83EC3C    	       sub esp, 60
      0x00004eb6:                 890424    	       mov [esp], eax
      0x00004eb9:               894C2444    	       mov [esp + 68], ecx
      0x00004ebd:               89542448    	       mov [esp + 72], edx
      0x00004ec1:               895C244C    	       mov [esp + 76], ebx
      0x00004ec5:     6466833D0000000000    	       cmpw fs:[0x0], 0  ; state_and_flags
      0x00004ece:           0F8587010000    	       jnz/ne +391 (0x0000505b)
      0x00004ed4:                 8B0C24    	       mov ecx, [esp]
      0x00004ed7:             B823000000    	       mov eax, 35
      0x00004edc:         64FF1514010000    	       call fs:[0x114]  ; pAllocObject
      suspend point dex PC: 0x0000
      GC map objects:  v6 ([sp + #68]), v7 ([sp + #72]), v8 ([sp + #76])
      0x00004ee3:               89442424    	       mov [esp + 36], eax
      0x00004ee7:               8B442424    	       mov eax, [esp + 36]
      0x00004eeb:                   8500    	       test eax, [eax]
      suspend point dex PC: 0x0002
      GC map objects:  v1 ([sp + #36]), v6 ([sp + #68]), v7 ([sp + #72]), v8 ([sp + #76])
      0x00004eed:               8944241C    	       mov [esp + 28], eax
      0x00004ef1:               8B4C241C    	       mov ecx, [esp + 28]
      0x00004ef5:               8B54244C    	       mov edx, [esp + 76]
      0x00004ef9:                 8B0424    	       mov eax, [esp]
      0x00004efc:                 8B4004    	       mov eax, [eax + 4]
      0x00004eff:           8B80C0000000    	       mov eax, [eax + 192]
      0x00004f05:                 FF5024    	       call [eax + 36]
      suspend point dex PC: 0x0002
      GC map objects:  v1 ([sp + #36]), v6 ([sp + #68]), v7 ([sp + #72]), v8 ([sp + #76])
      0x00004f08:                 8B0C24    	       mov ecx, [esp]
      0x00004f0b:             B824000000    	       mov eax, 36
      0x00004f10:         64FF1514010000    	       call fs:[0x114]  ; pAllocObject
      suspend point dex PC: 0x0005
      GC map objects:  v1 ([sp + #36]), v6 ([sp + #68]), v7 ([sp + #72]), v8 ([sp + #76])
      0x00004f17:               89442430    	       mov [esp + 48], eax
      0x00004f1b:               8B442430    	       mov eax, [esp + 48]
      0x00004f1f:                   8500    	       test eax, [eax]
      suspend point dex PC: 0x0007
      GC map objects:  v1 ([sp + #36]), v4 ([sp + #48]), v6 ([sp + #68]), v7 ([sp + #72]), v8 ([sp + #76])
      0x00004f21:               8944241C    	       mov [esp + 28], eax
      0x00004f25:               8B4C241C    	       mov ecx, [esp + 28]
      0x00004f29:               8B542424    	       mov edx, [esp + 36]
      0x00004f2d:                 8B0424    	       mov eax, [esp]
      0x00004f30:                 8B4004    	       mov eax, [eax + 4]
      0x00004f33:           8B80CC000000    	       mov eax, [eax + 204]
      0x00004f39:                 FF5024    	       call [eax + 36]
      suspend point dex PC: 0x0007
      GC map objects:  v1 ([sp + #36]), v4 ([sp + #48]), v6 ([sp + #68]), v7 ([sp + #72]), v8 ([sp + #76])
      0x00004f3c:               8B442444    	       mov eax, [esp + 68]
      0x00004f40:                   8500    	       test eax, [eax]
      suspend point dex PC: 0x000a
      GC map objects:  v1 ([sp + #36]), v4 ([sp + #48]), v6 ([sp + #68]), v7 ([sp + #72]), v8 ([sp + #76])
      0x00004f42:               8944241C    	       mov [esp + 28], eax
      0x00004f46:               8B4C241C    	       mov ecx, [esp + 28]
      0x00004f4a:                   8B01    	       mov eax, [ecx]
      0x00004f4c:           8B8038020000    	       mov eax, [eax + 568]
      0x00004f52:                 FF5024    	       call [eax + 36]
      suspend point dex PC: 0x000a
      GC map objects:  v1 ([sp + #36]), v4 ([sp + #48]), v6 ([sp + #68]), v7 ([sp + #72]), v8 ([sp + #76])
      0x00004f55:               89442434    	       mov [esp + 52], eax
      0x00004f59:               8B442434    	       mov eax, [esp + 52]
      0x00004f5d:                   8500    	       test eax, [eax]
      suspend point dex PC: 0x000e
      GC map objects:  v1 ([sp + #36]), v4 ([sp + #48]), v5 ([sp + #52]), v6 ([sp + #68]), v7 ([sp + #72]), v8 ([sp + #76])
      0x00004f5f:               8944241C    	       mov [esp + 28], eax
      0x00004f63:               8B4C241C    	       mov ecx, [esp + 28]
      0x00004f67:               8B542448    	       mov edx, [esp + 72]
      0x00004f6b:                 8B0424    	       mov eax, [esp]
      0x00004f6e:                 8B4004    	       mov eax, [eax + 4]
      0x00004f71:                 8B4024    	       mov eax, [eax + 36]
      0x00004f74:                 FF5024    	       call [eax + 36]
      suspend point dex PC: 0x000e
      GC map objects:  v1 ([sp + #36]), v4 ([sp + #48]), v5 ([sp + #52]), v6 ([sp + #68]), v7 ([sp + #72]), v8 ([sp + #76])
      0x00004f77:               89442428    	       mov [esp + 40], eax
      0x00004f7b:       C744243400040000    	       mov [esp + 52], 1024
      0x00004f83:               8B4C2434    	       mov ecx, [esp + 52]
      0x00004f87:                 8B1424    	       mov edx, [esp]
      0x00004f8a:             B837000000    	       mov eax, 55
      0x00004f8f:         64FF1508010000    	       call fs:[0x108]  ; pAllocArray
      suspend point dex PC: 0x0014
      GC map objects:  v1 ([sp + #36]), v2 ([sp + #40]), v4 ([sp + #48]), v6 ([sp + #68]), v7 ([sp + #72]), v8 ([sp + #76])
      0x00004f96:               89442420    	       mov [esp + 32], eax
      0x00004f9a:               8B442428    	       mov eax, [esp + 40]
      0x00004f9e:                   8500    	       test eax, [eax]
      suspend point dex PC: 0x0016
      GC map objects:  v0 ([sp + #32]), v1 ([sp + #36]), v2 ([sp + #40]), v4 ([sp + #48]), v6 ([sp + #68]), v7 ([sp + #72]), v8 ([sp + #76])
      0x00004fa0:               8944241C    	       mov [esp + 28], eax
      0x00004fa4:               8B4C241C    	       mov ecx, [esp + 28]
      0x00004fa8:               8B542420    	       mov edx, [esp + 32]
      0x00004fac:                   8B01    	       mov eax, [ecx]
      0x00004fae:           8B80CC010000    	       mov eax, [eax + 460]
      0x00004fb4:                 FF5024    	       call [eax + 36]
      suspend point dex PC: 0x0016
      GC map objects:  v0 ([sp + #32]), v1 ([sp + #36]), v2 ([sp + #40]), v4 ([sp + #48]), v6 ([sp + #68]), v7 ([sp + #72]), v8 ([sp + #76])
      0x00004fb7:               8944242C    	       mov [esp + 44], eax
      0x00004fbb:       C7442434FFFFFFFF    	       mov [esp + 52], -1
      0x00004fc3:               8B44242C    	       mov eax, [esp + 44]
      0x00004fc7:                   33C9    	       xor ecx, ecx
      0x00004fc9:               3B442434    	       cmp eax, [esp + 52]
      0x00004fcd:                 0F94C1    	       setz/eq ecx
      0x00004fd0:                   89C8    	       mov eax, ecx
      0x00004fd2:           0F8449000000    	       jz/eq +73 (0x00005021)
      0x00004fd8:       C744243400000000    	       mov [esp + 52], 0
      0x00004fe0:               8B442430    	       mov eax, [esp + 48]
      0x00004fe4:                   8500    	       test eax, [eax]
      suspend point dex PC: 0x001e
      GC map objects:  v0 ([sp + #32]), v1 ([sp + #36]), v2 ([sp + #40]), v4 ([sp + #48]), v6 ([sp + #68]), v7 ([sp + #72]), v8 ([sp + #76])
      0x00004fe6:               8944241C    	       mov [esp + 28], eax
      0x00004fea:               8B4C241C    	       mov ecx, [esp + 28]
      0x00004fee:               8B542420    	       mov edx, [esp + 32]
      0x00004ff2:               8B5C2434    	       mov ebx, [esp + 52]
      0x00004ff6:               FF74242C    	       push [esp + 44]
      0x00004ffa:               8F442410    	       pop [esp + 16]
      0x00004ffe:                 8B0424    	       mov eax, [esp]
      0x00005001:                 8B4004    	       mov eax, [eax + 4]
      0x00005004:           8B80D4000000    	       mov eax, [eax + 212]
      0x0000500a:                 FF5024    	       call [eax + 36]
      suspend point dex PC: 0x001e
      GC map objects:  v0 ([sp + #32]), v1 ([sp + #36]), v2 ([sp + #40]), v4 ([sp + #48]), v6 ([sp + #68]), v7 ([sp + #72]), v8 ([sp + #76])
      0x0000500d:     6466833D0000000000    	       cmpw fs:[0x0], 0  ; state_and_flags
      0x00005016:           0F854B000000    	       jnz/ne +75 (0x00005067)
      0x0000501c:             E979FFFFFF    	       jmp -135 (0x00004f9a)
      0x00005021:               8B442428    	       mov eax, [esp + 40]
      0x00005025:                   8500    	       test eax, [eax]
      suspend point dex PC: 0x0022
      GC map objects:  v0 ([sp + #32]), v1 ([sp + #36]), v2 ([sp + #40]), v4 ([sp + #48]), v6 ([sp + #68]), v7 ([sp + #72]), v8 ([sp + #76])
      0x00005027:               8944241C    	       mov [esp + 28], eax
      0x0000502b:               8B4C241C    	       mov ecx, [esp + 28]
      0x0000502f:                   8B01    	       mov eax, [ecx]
      0x00005031:           8B80BC010000    	       mov eax, [eax + 444]
      0x00005037:                 FF5024    	       call [eax + 36]
      suspend point dex PC: 0x0022
      GC map objects:  v0 ([sp + #32]), v1 ([sp + #36]), v2 ([sp + #40]), v4 ([sp + #48]), v6 ([sp + #68]), v7 ([sp + #72]), v8 ([sp + #76])
      0x0000503a:               8B442430    	       mov eax, [esp + 48]
      0x0000503e:                   8500    	       test eax, [eax]
      suspend point dex PC: 0x0025
      GC map objects:  v0 ([sp + #32]), v1 ([sp + #36]), v2 ([sp + #40]), v4 ([sp + #48]), v6 ([sp + #68]), v7 ([sp + #72]), v8 ([sp + #76])
      0x00005040:               8944241C    	       mov [esp + 28], eax
      0x00005044:               8B4C241C    	       mov ecx, [esp + 28]
      0x00005048:                 8B0424    	       mov eax, [esp]
      0x0000504b:                 8B4004    	       mov eax, [eax + 4]
      0x0000504e:           8B80D0000000    	       mov eax, [eax + 208]
      0x00005054:                 FF5024    	       call [eax + 36]
      suspend point dex PC: 0x0025
      GC map objects:  v0 ([sp + #32]), v1 ([sp + #36]), v2 ([sp + #40]), v4 ([sp + #48]), v6 ([sp + #68]), v7 ([sp + #72]), v8 ([sp + #76])
      0x00005057:                 83C43C    	       add esp, 60
      0x0000505a:                     C3    	       ret 
      0x0000505b:         64FF155C020000    	       call fs:[0x25c]  ; pTestSuspend
      suspend point dex PC: 0x0000
      GC map objects:  v6 ([sp + #68]), v7 ([sp + #72]), v8 ([sp + #76])
      0x00005062:             E96DFEFFFF    	       jmp -403 (0x00004ed4)
      0x00005067:         64FF155C020000    	       call fs:[0x25c]  ; pTestSuspend
      suspend point dex PC: 0x0021
      GC map objects:  v0 ([sp + #32]), v1 ([sp + #36]), v2 ([sp + #40]), v4 ([sp + #48]), v6 ([sp + #68]), v7 ([sp + #72]), v8 ([sp + #76])
      0x0000506e:                   EBAC    	       jmp -84 (0x0000501c)
15: Lcom/ljj/patch/util/DexUtils; (offset=0x00002e0c) (type_idx=26) (StatusInitialized) (OatClassAllCompiled)
  0: void com.ljj.patch.util.DexUtils.<init>() (dex_method_idx=34)
    DEX CODE:
      0x0000: 7010 3f00 0000           	| invoke-direct {v0}, void java.lang.Object.<init>() // method@63
      0x0003: 0e00                     	| return-void
    OatMethodOffsets (offset=0x00002e10)
      code_offset: 0x0000508c 
      gc_map: (offset=0x00002e3c)
    OatQuickMethodHeader (offset=0x00005070)
      mapping_table: (offset=0x000031e0)
      vmap_table: (offset=0x00003438)
      v65535/r8
    QuickMethodFrameInfo
      frame_size_in_bytes: 32
      core_spill_mask: 0x00000100 (r8)
      fp_spill_mask: 0x00000000 
      vr_stack_locations:
      	ins: v0[sp + #36]
      	method*: v1[sp + #0]
      	outs: v0[sp + #4]
    CODE: (code_offset=0x0000508c size_offset=0x00005088 size=74)...
      0x0000508c:         85842400E0FFFF    	       test eax, [esp + -8192]
      suspend point dex PC: 0x0000
      GC map objects:  v0 ([sp + #36])
      0x00005093:                 83EC1C    	       sub esp, 28
      0x00005096:                 890424    	       mov [esp], eax
      0x00005099:               894C2424    	       mov [esp + 36], ecx
      0x0000509d:     6466833D0000000000    	       cmpw fs:[0x0], 0  ; state_and_flags
      0x000050a6:           0F8521000000    	       jnz/ne +33 (0x000050cd)
      0x000050ac:               8B442424    	       mov eax, [esp + 36]
      0x000050b0:                   8500    	       test eax, [eax]
      suspend point dex PC: 0x0000
      GC map objects:  v0 ([sp + #36])
      0x000050b2:               89442414    	       mov [esp + 20], eax
      0x000050b6:               8B4C2414    	       mov ecx, [esp + 20]
      0x000050ba:                 8B0424    	       mov eax, [esp]
      0x000050bd:                 8B4004    	       mov eax, [eax + 4]
      0x000050c0:           8B8008010000    	       mov eax, [eax + 264]
      0x000050c6:                 FF5024    	       call [eax + 36]
      suspend point dex PC: 0x0000
      GC map objects:  v0 ([sp + #36])
      0x000050c9:                 83C41C    	       add esp, 28
      0x000050cc:                     C3    	       ret 
      0x000050cd:         64FF155C020000    	       call fs:[0x25c]  ; pTestSuspend
      suspend point dex PC: 0x0000
      GC map objects:  v0 ([sp + #36])
      0x000050d4:                   EBD6    	       jmp -42 (0x000050ac)
  1: java.lang.Object com.ljj.patch.util.DexUtils.combineArray(java.lang.Object, java.lang.Object) (dex_method_idx=35)
    DEX CODE:
      0x0000: 6e10 4000 0600           	| invoke-virtual {v6}, java.lang.Class java.lang.Object.getClass() // method@64
      0x0003: 0c05                     	| move-result-object v5
      0x0004: 6e10 3a00 0500           	| invoke-virtual {v5}, java.lang.Class java.lang.Class.getComponentType() // method@58
      0x0007: 0c03                     	| move-result-object v3
      0x0008: 7110 4600 0600           	| invoke-static {v6}, int java.lang.reflect.Array.getLength(java.lang.Object) // method@70
      0x000b: 0a01                     	| move-result v1
      0x000c: 7110 4600 0700           	| invoke-static {v7}, int java.lang.reflect.Array.getLength(java.lang.Object) // method@70
      0x000f: 0a05                     	| move-result v5
      0x0010: 9000 0105                	| add-int v0, v1, v5
      0x0012: 7120 4700 0300           	| invoke-static {v3, v0}, java.lang.Object java.lang.reflect.Array.newInstance(java.lang.Class, int) // method@71
      0x0015: 0c04                     	| move-result-object v4
      0x0016: 1202                     	| const/4 v2, #+0
      0x0017: 3502 1800                	| if-ge v2, v0, +24
      0x0019: 3512 0c00                	| if-ge v2, v1, +12
      0x001b: 7120 4500 2600           	| invoke-static {v6, v2}, java.lang.Object java.lang.reflect.Array.get(java.lang.Object, int) // method@69
      0x001e: 0c05                     	| move-result-object v5
      0x001f: 7130 4800 2405           	| invoke-static {v4, v2, v5}, void java.lang.reflect.Array.set(java.lang.Object, int, java.lang.Object) // method@72
      0x0022: d802 0201                	| add-int/lit8 v2, v2, #+1
      0x0024: 28f3                     	| goto -13
      0x0025: 9105 0201                	| sub-int v5, v2, v1
      0x0027: 7120 4500 5700           	| invoke-static {v7, v5}, java.lang.Object java.lang.reflect.Array.get(java.lang.Object, int) // method@69
      0x002a: 0c05                     	| move-result-object v5
      0x002b: 7130 4800 2405           	| invoke-static {v4, v2, v5}, void java.lang.reflect.Array.set(java.lang.Object, int, java.lang.Object) // method@72
      0x002e: 28f4                     	| goto -12
      0x002f: 1104                     	| return-object v4
    OatMethodOffsets (offset=0x00002e14)
      code_offset: 0x000050fc 
      gc_map: (offset=0x00002fb4)
    OatQuickMethodHeader (offset=0x000050e0)
      mapping_table: (offset=0x000032dc)
      vmap_table: (offset=0x00003438)
      v65535/r8
    QuickMethodFrameInfo
      frame_size_in_bytes: 64
      core_spill_mask: 0x00000100 (r8)
      fp_spill_mask: 0x00000000 
      vr_stack_locations:
      	locals: v0[sp + #32] v1[sp + #36] v2[sp + #40] v3[sp + #44] v4[sp + #48] v5[sp + #52]
      	ins: v6[sp + #68] v7[sp + #72]
      	method*: v8[sp + #0]
      	outs: v0[sp + #4] v1[sp + #8] v2[sp + #12]
    CODE: (code_offset=0x000050fc size_offset=0x000050f8 size=924)...
      0x000050fc:         85842400E0FFFF    	       test eax, [esp + -8192]
      suspend point dex PC: 0x0000
      GC map objects:  v6 ([sp + #68]), v7 ([sp + #72])
      0x00005103:                 83EC3C    	       sub esp, 60
      0x00005106:                 890424    	       mov [esp], eax
      0x00005109:               894C2444    	       mov [esp + 68], ecx
      0x0000510d:               89542448    	       mov [esp + 72], edx
      0x00005111:     6466833D0000000000    	       cmpw fs:[0x0], 0  ; state_and_flags
      0x0000511a:           0F8566020000    	       jnz/ne +614 (0x00005386)
      0x00005120:               8B442444    	       mov eax, [esp + 68]
      0x00005124:                   8500    	       test eax, [eax]
      suspend point dex PC: 0x0000
      GC map objects:  v6 ([sp + #68]), v7 ([sp + #72])
      0x00005126:               8944241C    	       mov [esp + 28], eax
      0x0000512a:               8B4C241C    	       mov ecx, [esp + 28]
      0x0000512e:                 8B0424    	       mov eax, [esp]
      0x00005131:                 8B4004    	       mov eax, [eax + 4]
      0x00005134:           8B800C010000    	       mov eax, [eax + 268]
      0x0000513a:                 FF5024    	       call [eax + 36]
      suspend point dex PC: 0x0000
      GC map objects:  v6 ([sp + #68]), v7 ([sp + #72])
      0x0000513d:               89442434    	       mov [esp + 52], eax
      0x00005141:               8B442434    	       mov eax, [esp + 52]
      0x00005145:                   8500    	       test eax, [eax]
      suspend point dex PC: 0x0004
      GC map objects:  v5 ([sp + #52]), v6 ([sp + #68]), v7 ([sp + #72])
      0x00005147:               8944241C    	       mov [esp + 28], eax
      0x0000514b:               8B4C241C    	       mov ecx, [esp + 28]
      0x0000514f:                 8B0424    	       mov eax, [esp]
      0x00005152:                 8B4004    	       mov eax, [eax + 4]
      0x00005155:           8B80F4000000    	       mov eax, [eax + 244]
      0x0000515b:                 FF5024    	       call [eax + 36]
      suspend point dex PC: 0x0004
      GC map objects:  v5 ([sp + #52]), v6 ([sp + #68]), v7 ([sp + #72])
      0x0000515e:               8944242C    	       mov [esp + 44], eax
      0x00005162:                 8B0424    	       mov eax, [esp]
      0x00005165:                 8B4008    	       mov eax, [eax + 8]
      0x00005168:           8B80D8000000    	       mov eax, [eax + 216]
      0x0000516e:                   85C0    	       test eax, eax
      0x00005170:           0F841C020000    	       jz/eq +540 (0x00005392)
      0x00005176:         83B8840000000A    	       cmp [eax + 132], 10
      0x0000517d:           0F8C20020000    	       jl/nge +544 (0x000053a3)
      0x00005183:               8B4C2444    	       mov ecx, [esp + 68]
      0x00005187:                 8B0424    	       mov eax, [esp]
      0x0000518a:                 8B4004    	       mov eax, [eax + 4]
      0x0000518d:           8B8024010000    	       mov eax, [eax + 292]
      0x00005193:                 FF5024    	       call [eax + 36]
      suspend point dex PC: 0x0008
      GC map objects:  v3 ([sp + #44]), v5 ([sp + #52]), v6 ([sp + #68]), v7 ([sp + #72])
      0x00005196:               89442424    	       mov [esp + 36], eax
      0x0000519a:                 8B0424    	       mov eax, [esp]
      0x0000519d:                 8B4008    	       mov eax, [eax + 8]
      0x000051a0:           8B80D8000000    	       mov eax, [eax + 216]
      0x000051a6:                   85C0    	       test eax, eax
      0x000051a8:           0F8406020000    	       jz/eq +518 (0x000053b4)
      0x000051ae:         83B8840000000A    	       cmp [eax + 132], 10
      0x000051b5:           0F8C0A020000    	       jl/nge +522 (0x000053c5)
      0x000051bb:               8B4C2448    	       mov ecx, [esp + 72]
      0x000051bf:                 8B0424    	       mov eax, [esp]
      0x000051c2:                 8B4004    	       mov eax, [eax + 4]
      0x000051c5:           8B8024010000    	       mov eax, [eax + 292]
      0x000051cb:                 FF5024    	       call [eax + 36]
      suspend point dex PC: 0x000c
      GC map objects:  v3 ([sp + #44]), v5 ([sp + #52]), v6 ([sp + #68]), v7 ([sp + #72])
      0x000051ce:               89442434    	       mov [esp + 52], eax
      0x000051d2:               8B442424    	       mov eax, [esp + 36]
      0x000051d6:               8B4C2434    	       mov ecx, [esp + 52]
      0x000051da:                 8D1408    	       lea edx, [eax + ecx]
      0x000051dd:               89542420    	       mov [esp + 32], edx
      0x000051e1:                 8B0424    	       mov eax, [esp]
      0x000051e4:                 8B4008    	       mov eax, [eax + 8]
      0x000051e7:           8B80D8000000    	       mov eax, [eax + 216]
      0x000051ed:                   85C0    	       test eax, eax
      0x000051ef:           0F84E1010000    	       jz/eq +481 (0x000053d6)
      0x000051f5:         83B8840000000A    	       cmp [eax + 132], 10
      0x000051fc:           0F8CE5010000    	       jl/nge +485 (0x000053e7)
      0x00005202:               8B4C242C    	       mov ecx, [esp + 44]
      0x00005206:               8B542420    	       mov edx, [esp + 32]
      0x0000520a:                 8B0424    	       mov eax, [esp]
      0x0000520d:                 8B4004    	       mov eax, [eax + 4]
      0x00005210:           8B8028010000    	       mov eax, [eax + 296]
      0x00005216:                 FF5024    	       call [eax + 36]
      suspend point dex PC: 0x0012
      GC map objects:  v3 ([sp + #44]), v6 ([sp + #68]), v7 ([sp + #72])
      0x00005219:               89442430    	       mov [esp + 48], eax
      0x0000521d:       C744242800000000    	       mov [esp + 40], 0
      0x00005225:               8B442428    	       mov eax, [esp + 40]
      0x00005229:                   33C9    	       xor ecx, ecx
      0x0000522b:               3B442420    	       cmp eax, [esp + 32]
      0x0000522f:                 0F9DC1    	       setnl/ge ecx
      0x00005232:                   89C8    	       mov eax, ecx
      0x00005234:           0F8D44010000    	       jnl/ge +324 (0x0000537e)
      0x0000523a:               8B442428    	       mov eax, [esp + 40]
      0x0000523e:                   33C9    	       xor ecx, ecx
      0x00005240:               3B442424    	       cmp eax, [esp + 36]
      0x00005244:                 0F9DC1    	       setnl/ge ecx
      0x00005247:                   89C8    	       mov eax, ecx
      0x00005249:           0F8D97000000    	       jnl/ge +151 (0x000052e6)
      0x0000524f:                 8B0424    	       mov eax, [esp]
      0x00005252:                 8B4008    	       mov eax, [eax + 8]
      0x00005255:           8B80D8000000    	       mov eax, [eax + 216]
      0x0000525b:                   85C0    	       test eax, eax
      0x0000525d:           0F8495010000    	       jz/eq +405 (0x000053f8)
      0x00005263:         83B8840000000A    	       cmp [eax + 132], 10
      0x0000526a:           0F8C99010000    	       jl/nge +409 (0x00005409)
      0x00005270:               8B4C2444    	       mov ecx, [esp + 68]
      0x00005274:               8B542428    	       mov edx, [esp + 40]
      0x00005278:                 8B0424    	       mov eax, [esp]
      0x0000527b:                 8B4004    	       mov eax, [eax + 4]
      0x0000527e:           8B8020010000    	       mov eax, [eax + 288]
      0x00005284:                 FF5024    	       call [eax + 36]
      suspend point dex PC: 0x001b
      GC map objects:  v3 ([sp + #44]), v4 ([sp + #48]), v6 ([sp + #68]), v7 ([sp + #72])
      0x00005287:               89442434    	       mov [esp + 52], eax
      0x0000528b:                 8B0424    	       mov eax, [esp]
      0x0000528e:                 8B4008    	       mov eax, [eax + 8]
      0x00005291:           8B80D8000000    	       mov eax, [eax + 216]
      0x00005297:                   85C0    	       test eax, eax
      0x00005299:           0F847B010000    	       jz/eq +379 (0x0000541a)
      0x0000529f:         83B8840000000A    	       cmp [eax + 132], 10
      0x000052a6:           0F8C7F010000    	       jl/nge +383 (0x0000542b)
      0x000052ac:               8B4C2430    	       mov ecx, [esp + 48]
      0x000052b0:               8B542428    	       mov edx, [esp + 40]
      0x000052b4:               8B5C2434    	       mov ebx, [esp + 52]
      0x000052b8:                 8B0424    	       mov eax, [esp]
      0x000052bb:                 8B4004    	       mov eax, [eax + 4]
      0x000052be:           8B802C010000    	       mov eax, [eax + 300]
      0x000052c4:                 FF5024    	       call [eax + 36]
      suspend point dex PC: 0x001f
      GC map objects:  v3 ([sp + #44]), v4 ([sp + #48]), v5 ([sp + #52]), v6 ([sp + #68]), v7 ([sp + #72])
      0x000052c7:               8B442428    	       mov eax, [esp + 40]
      0x000052cb:                 8D4801    	       lea ecx, [eax + 1]
      0x000052ce:               894C2428    	       mov [esp + 40], ecx
      0x000052d2:     6466833D0000000000    	       cmpw fs:[0x0], 0  ; state_and_flags
      0x000052db:           0F855B010000    	       jnz/ne +347 (0x0000543c)
      0x000052e1:             E93FFFFFFF    	       jmp -193 (0x00005225)
      0x000052e6:               8B442428    	       mov eax, [esp + 40]
      0x000052ea:               2B442424    	       sub eax, [esp + 36]
      0x000052ee:               89442434    	       mov [esp + 52], eax
      0x000052f2:                 8B0424    	       mov eax, [esp]
      0x000052f5:                 8B4008    	       mov eax, [eax + 8]
      0x000052f8:           8B80D8000000    	       mov eax, [eax + 216]
      0x000052fe:                   85C0    	       test eax, eax
      0x00005300:           0F8442010000    	       jz/eq +322 (0x00005448)
      0x00005306:         83B8840000000A    	       cmp [eax + 132], 10
      0x0000530d:           0F8C46010000    	       jl/nge +326 (0x00005459)
      0x00005313:               8B4C2448    	       mov ecx, [esp + 72]
      0x00005317:               8B542434    	       mov edx, [esp + 52]
      0x0000531b:                 8B0424    	       mov eax, [esp]
      0x0000531e:                 8B4004    	       mov eax, [eax + 4]
      0x00005321:           8B8020010000    	       mov eax, [eax + 288]
      0x00005327:                 FF5024    	       call [eax + 36]
      suspend point dex PC: 0x0027
      GC map objects:  v3 ([sp + #44]), v4 ([sp + #48]), v6 ([sp + #68]), v7 ([sp + #72])
      0x0000532a:               89442434    	       mov [esp + 52], eax
      0x0000532e:                 8B0424    	       mov eax, [esp]
      0x00005331:                 8B4008    	       mov eax, [eax + 8]
      0x00005334:           8B80D8000000    	       mov eax, [eax + 216]
      0x0000533a:                   85C0    	       test eax, eax
      0x0000533c:           0F8428010000    	       jz/eq +296 (0x0000546a)
      0x00005342:         83B8840000000A    	       cmp [eax + 132], 10
      0x00005349:           0F8C2C010000    	       jl/nge +300 (0x0000547b)
      0x0000534f:               8B4C2430    	       mov ecx, [esp + 48]
      0x00005353:               8B542428    	       mov edx, [esp + 40]
      0x00005357:               8B5C2434    	       mov ebx, [esp + 52]
      0x0000535b:                 8B0424    	       mov eax, [esp]
      0x0000535e:                 8B4004    	       mov eax, [eax + 4]
      0x00005361:           8B802C010000    	       mov eax, [eax + 300]
      0x00005367:                 FF5024    	       call [eax + 36]
      suspend point dex PC: 0x002b
      GC map objects:  v3 ([sp + #44]), v4 ([sp + #48]), v5 ([sp + #52]), v6 ([sp + #68]), v7 ([sp + #72])
      0x0000536a:     6466833D0000000000    	       cmpw fs:[0x0], 0  ; state_and_flags
      0x00005373:           0F8513010000    	       jnz/ne +275 (0x0000548c)
      0x00005379:             E949FFFFFF    	       jmp -183 (0x000052c7)
      0x0000537e:               8B442430    	       mov eax, [esp + 48]
      0x00005382:                 83C43C    	       add esp, 60
      0x00005385:                     C3    	       ret 
      0x00005386:         64FF155C020000    	       call fs:[0x25c]  ; pTestSuspend
      suspend point dex PC: 0x0000
      GC map objects:  v6 ([sp + #68]), v7 ([sp + #72])
      0x0000538d:             E98EFDFFFF    	       jmp -626 (0x00005120)
      0x00005392:             B833000000    	       mov eax, 51
      0x00005397:         64FF1548010000    	       call fs:[0x148]  ; pInitializeType
      suspend point dex PC: 0x0008
      GC map objects:  v3 ([sp + #44]), v5 ([sp + #52]), v6 ([sp + #68]), v7 ([sp + #72])
      0x0000539e:             E9D3FDFFFF    	       jmp -557 (0x00005176)
      0x000053a3:             B833000000    	       mov eax, 51
      0x000053a8:         64FF1540010000    	       call fs:[0x140]  ; pInitializeStaticStorage
      suspend point dex PC: 0x0008
      GC map objects:  v3 ([sp + #44]), v5 ([sp + #52]), v6 ([sp + #68]), v7 ([sp + #72])
      0x000053af:             E9CFFDFFFF    	       jmp -561 (0x00005183)
      0x000053b4:             B833000000    	       mov eax, 51
      0x000053b9:         64FF1548010000    	       call fs:[0x148]  ; pInitializeType
      suspend point dex PC: 0x000c
      GC map objects:  v3 ([sp + #44]), v5 ([sp + #52]), v6 ([sp + #68]), v7 ([sp + #72])
      0x000053c0:             E9E9FDFFFF    	       jmp -535 (0x000051ae)
      0x000053c5:             B833000000    	       mov eax, 51
      0x000053ca:         64FF1540010000    	       call fs:[0x140]  ; pInitializeStaticStorage
      suspend point dex PC: 0x000c
      GC map objects:  v3 ([sp + #44]), v5 ([sp + #52]), v6 ([sp + #68]), v7 ([sp + #72])
      0x000053d1:             E9E5FDFFFF    	       jmp -539 (0x000051bb)
      0x000053d6:             B833000000    	       mov eax, 51
      0x000053db:         64FF1548010000    	       call fs:[0x148]  ; pInitializeType
      suspend point dex PC: 0x0012
      GC map objects:  v3 ([sp + #44]), v6 ([sp + #68]), v7 ([sp + #72])
      0x000053e2:             E90EFEFFFF    	       jmp -498 (0x000051f5)
      0x000053e7:             B833000000    	       mov eax, 51
      0x000053ec:         64FF1540010000    	       call fs:[0x140]  ; pInitializeStaticStorage
      suspend point dex PC: 0x0012
      GC map objects:  v3 ([sp + #44]), v6 ([sp + #68]), v7 ([sp + #72])
      0x000053f3:             E90AFEFFFF    	       jmp -502 (0x00005202)
      0x000053f8:             B833000000    	       mov eax, 51
      0x000053fd:         64FF1548010000    	       call fs:[0x148]  ; pInitializeType
      suspend point dex PC: 0x001b
      GC map objects:  v3 ([sp + #44]), v4 ([sp + #48]), v6 ([sp + #68]), v7 ([sp + #72])
      0x00005404:             E95AFEFFFF    	       jmp -422 (0x00005263)
      0x00005409:             B833000000    	       mov eax, 51
      0x0000540e:         64FF1540010000    	       call fs:[0x140]  ; pInitializeStaticStorage
      suspend point dex PC: 0x001b
      GC map objects:  v3 ([sp + #44]), v4 ([sp + #48]), v6 ([sp + #68]), v7 ([sp + #72])
      0x00005415:             E956FEFFFF    	       jmp -426 (0x00005270)
      0x0000541a:             B833000000    	       mov eax, 51
      0x0000541f:         64FF1548010000    	       call fs:[0x148]  ; pInitializeType
      suspend point dex PC: 0x001f
      GC map objects:  v3 ([sp + #44]), v4 ([sp + #48]), v5 ([sp + #52]), v6 ([sp + #68]), v7 ([sp + #72])
      0x00005426:             E974FEFFFF    	       jmp -396 (0x0000529f)
      0x0000542b:             B833000000    	       mov eax, 51
      0x00005430:         64FF1540010000    	       call fs:[0x140]  ; pInitializeStaticStorage
      suspend point dex PC: 0x001f
      GC map objects:  v3 ([sp + #44]), v4 ([sp + #48]), v5 ([sp + #52]), v6 ([sp + #68]), v7 ([sp + #72])
      0x00005437:             E970FEFFFF    	       jmp -400 (0x000052ac)
      0x0000543c:         64FF155C020000    	       call fs:[0x25c]  ; pTestSuspend
      suspend point dex PC: 0x0024
      GC map objects:  v3 ([sp + #44]), v4 ([sp + #48]), v5 ([sp + #52]), v6 ([sp + #68]), v7 ([sp + #72])
      0x00005443:             E999FEFFFF    	       jmp -359 (0x000052e1)
      0x00005448:             B833000000    	       mov eax, 51
      0x0000544d:         64FF1548010000    	       call fs:[0x148]  ; pInitializeType
      suspend point dex PC: 0x0027
      GC map objects:  v3 ([sp + #44]), v4 ([sp + #48]), v6 ([sp + #68]), v7 ([sp + #72])
      0x00005454:             E9ADFEFFFF    	       jmp -339 (0x00005306)
      0x00005459:             B833000000    	       mov eax, 51
      0x0000545e:         64FF1540010000    	       call fs:[0x140]  ; pInitializeStaticStorage
      suspend point dex PC: 0x0027
      GC map objects:  v3 ([sp + #44]), v4 ([sp + #48]), v6 ([sp + #68]), v7 ([sp + #72])
      0x00005465:             E9A9FEFFFF    	       jmp -343 (0x00005313)
      0x0000546a:             B833000000    	       mov eax, 51
      0x0000546f:         64FF1548010000    	       call fs:[0x148]  ; pInitializeType
      suspend point dex PC: 0x002b
      GC map objects:  v3 ([sp + #44]), v4 ([sp + #48]), v5 ([sp + #52]), v6 ([sp + #68]), v7 ([sp + #72])
      0x00005476:             E9C7FEFFFF    	       jmp -313 (0x00005342)
      0x0000547b:             B833000000    	       mov eax, 51
      0x00005480:         64FF1540010000    	       call fs:[0x140]  ; pInitializeStaticStorage
      suspend point dex PC: 0x002b
      GC map objects:  v3 ([sp + #44]), v4 ([sp + #48]), v5 ([sp + #52]), v6 ([sp + #68]), v7 ([sp + #72])
      0x00005487:             E9C3FEFFFF    	       jmp -317 (0x0000534f)
      0x0000548c:         64FF155C020000    	       call fs:[0x25c]  ; pTestSuspend
      suspend point dex PC: 0x002e
      GC map objects:  v3 ([sp + #44]), v4 ([sp + #48]), v5 ([sp + #52]), v6 ([sp + #68]), v7 ([sp + #72])
      0x00005493:             E9E1FEFFFF    	       jmp -287 (0x00005379)
  2: void com.ljj.patch.util.DexUtils.inject(android.content.Context, java.lang.String) (dex_method_idx=36)
    DEX CODE:
      0x0000: 1a0a 7800                	| const-string v10, "dalvik.system.BaseDexClassLoader" // string@120
      0x0002: 7110 3800 0a00           	| invoke-static {v10}, java.lang.Class java.lang.Class.forName(java.lang.String) // method@56
      0x0005: 0c00                     	| move-result-object v0
      0x0006: 1c0a 1a00                	| const-class v10, com.ljj.patch.util.DexUtils // type@26
      0x0008: 6e10 3900 0a00           	| invoke-virtual {v10}, java.lang.ClassLoader java.lang.Class.getClassLoader() // method@57
      0x000b: 0c0a                     	| move-result-object v10
      0x000c: 1a0b b300                	| const-string v11, "pathList" // string@179
      0x000e: 7130 2900 a00b           	| invoke-static {v0, v10, v11}, java.lang.Object com.ljj.patch.util.ReflectionUtils.getField(java.lang.Class, java.lang.Object, java.lang.String) // method@41
      0x0011: 0c08                     	| move-result-object v8
      0x0012: 6e10 4000 0800           	| invoke-virtual {v8}, java.lang.Class java.lang.Object.getClass() // method@64
      0x0015: 0c0a                     	| move-result-object v10
      0x0016: 1a0b 7c00                	| const-string v11, "dexElements" // string@124
      0x0018: 7130 2900 8a0b           	| invoke-static {v10, v8, v11}, java.lang.Object com.ljj.patch.util.ReflectionUtils.getField(java.lang.Class, java.lang.Object, java.lang.String) // method@41
      0x001b: 0c07                     	| move-result-object v7
      0x001c: 1a0a ab00                	| const-string v10, "odex" // string@171
      0x001e: 120b                     	| const/4 v11, #+0
      0x001f: 6e30 0500 ad0b           	| invoke-virtual {v13, v10, v11}, java.io.File android.content.Context.getDir(java.lang.String, int) // method@5
      0x0022: 0c0a                     	| move-result-object v10
      0x0023: 6e10 2f00 0a00           	| invoke-virtual {v10}, java.lang.String java.io.File.getAbsolutePath() // method@47
      0x0026: 0c03                     	| move-result-object v3
      0x0027: 2202 2200                	| new-instance v2, dalvik.system.DexClassLoader // type@34
      0x0029: 1c0a 1a00                	| const-class v10, com.ljj.patch.util.DexUtils // type@26
      0x002b: 6e10 3900 0a00           	| invoke-virtual {v10}, java.lang.ClassLoader java.lang.Class.getClassLoader() // method@57
      0x002e: 0c0a                     	| move-result-object v10
      0x002f: 705a 2b00 e233           	| invoke-direct {v2, v14, v3, v3, v10}, void dalvik.system.DexClassLoader.<init>(java.lang.String, java.lang.String, java.lang.String, java.lang.ClassLoader) // method@43
      0x0032: 1a0a b300                	| const-string v10, "pathList" // string@179
      0x0034: 7130 2900 200a           	| invoke-static {v0, v2, v10}, java.lang.Object com.ljj.patch.util.ReflectionUtils.getField(java.lang.Class, java.lang.Object, java.lang.String) // method@41
      0x0037: 0c09                     	| move-result-object v9
      0x0038: 6e10 4000 0900           	| invoke-virtual {v9}, java.lang.Class java.lang.Object.getClass() // method@64
      0x003b: 0c0a                     	| move-result-object v10
      0x003c: 1a0b 7c00                	| const-string v11, "dexElements" // string@124
      0x003e: 7130 2900 9a0b           	| invoke-static {v10, v9, v11}, java.lang.Object com.ljj.patch.util.ReflectionUtils.getField(java.lang.Class, java.lang.Object, java.lang.String) // method@41
      0x0041: 0c05                     	| move-result-object v5
      0x0042: 7120 2300 7500           	| invoke-static {v5, v7}, java.lang.Object com.ljj.patch.util.DexUtils.combineArray(java.lang.Object, java.lang.Object) // method@35
      0x0045: 0c01                     	| move-result-object v1
      0x0046: 6e10 4000 0800           	| invoke-virtual {v8}, java.lang.Class java.lang.Object.getClass() // method@64
      0x0049: 0c0a                     	| move-result-object v10
      0x004a: 1a0b 7c00                	| const-string v11, "dexElements" // string@124
      0x004c: 7140 2a00 8a1b           	| invoke-static {v10, v8, v11, v1}, void com.ljj.patch.util.ReflectionUtils.setFeild(java.lang.Class, java.lang.Object, java.lang.String, java.lang.Object) // method@42
      0x004f: 6e10 4000 0800           	| invoke-virtual {v8}, java.lang.Class java.lang.Object.getClass() // method@64
      0x0052: 0c0a                     	| move-result-object v10
      0x0053: 1a0b 7c00                	| const-string v11, "dexElements" // string@124
      0x0055: 7130 2900 8a0b           	| invoke-static {v10, v8, v11}, java.lang.Object com.ljj.patch.util.ReflectionUtils.getField(java.lang.Class, java.lang.Object, java.lang.String) // method@41
      0x0058: 0c06                     	| move-result-object v6
      0x0059: 1a0a a200                	| const-string v10, "ljj" // string@162
      0x005b: 220b 3100                	| new-instance v11, java.lang.StringBuilder // type@49
      0x005d: 7010 4100 0b00           	| invoke-direct {v11}, void java.lang.StringBuilder.<init>() // method@65
      0x0060: 1a0c 9e00                	| const-string v12, "inject->length: " // string@158
      0x0062: 6e20 4300 cb00           	| invoke-virtual {v11, v12}, java.lang.StringBuilder java.lang.StringBuilder.append(java.lang.String) // method@67
      0x0065: 0c0b                     	| move-result-object v11
      0x0066: 7110 4600 0600           	| invoke-static {v6}, int java.lang.reflect.Array.getLength(java.lang.Object) // method@70
      0x0069: 0a0c                     	| move-result v12
      0x006a: 6e20 4200 cb00           	| invoke-virtual {v11, v12}, java.lang.StringBuilder java.lang.StringBuilder.append(int) // method@66
      0x006d: 0c0b                     	| move-result-object v11
      0x006e: 6e10 4400 0b00           	| invoke-virtual {v11}, java.lang.String java.lang.StringBuilder.toString() // method@68
      0x0071: 0c0b                     	| move-result-object v11
      0x0072: 7120 0800 ba00           	| invoke-static {v10, v11}, int android.util.Log.i(java.lang.String, java.lang.String) // method@8
      0x0075: 0e00                     	| return-void
      0x0076: 0d04                     	| move-exception v4
      0x0077: 6e10 3c00 0400           	| invoke-virtual {v4}, void java.lang.ClassNotFoundException.printStackTrace() // method@60
      0x007a: 28fb                     	| goto -5
      0x007b: 0d04                     	| move-exception v4
      0x007c: 6e10 3d00 0400           	| invoke-virtual {v4}, void java.lang.IllegalAccessException.printStackTrace() // method@61
      0x007f: 28f6                     	| goto -10
      0x0080: 0d04                     	| move-exception v4
      0x0081: 6e10 3e00 0400           	| invoke-virtual {v4}, void java.lang.NoSuchFieldException.printStackTrace() // method@62
      0x0084: 28f1                     	| goto -15
    OatMethodOffsets (offset=0x00002e18)
      code_offset: 0x000054bc 
      gc_map: (offset=0x00003010)
    OatQuickMethodHeader (offset=0x000054a0)
      mapping_table: (offset=0x00003318)
      vmap_table: (offset=0x00003438)
      v65535/r8
    QuickMethodFrameInfo
      frame_size_in_bytes: 96
      core_spill_mask: 0x00000100 (r8)
      fp_spill_mask: 0x00000000 
      vr_stack_locations:
      	locals: v0[sp + #36] v1[sp + #40] v2[sp + #44] v3[sp + #48] v4[sp + #52] v5[sp + #56] v6[sp + #60] v7[sp + #64] v8[sp + #68] v9[sp + #72] v10[sp + #76] v11[sp + #80] v12[sp + #84]
      	ins: v13[sp + #100] v14[sp + #104]
      	method*: v15[sp + #0]
      	outs: v0[sp + #4] v1[sp + #8] v2[sp + #12] v3[sp + #16] v4[sp + #20]
    CODE: (code_offset=0x000054bc size_offset=0x000054b8 size=2014)...
      0x000054bc:         85842400E0FFFF    	       test eax, [esp + -8192]
      suspend point dex PC: 0x0000
      GC map objects:  v13 ([sp + #100]), v14 ([sp + #104])
      0x000054c3:                 83EC5C    	       sub esp, 92
      0x000054c6:                 890424    	       mov [esp], eax
      0x000054c9:               894C2464    	       mov [esp + 100], ecx
      0x000054cd:               89542468    	       mov [esp + 104], edx
      0x000054d1:     6466833D0000000000    	       cmpw fs:[0x0], 0  ; state_and_flags
      0x000054da:           0F85D2050000    	       jnz/ne +1490 (0x00005ab2)
      0x000054e0:                 8B0424    	       mov eax, [esp]
      0x000054e3:                   8B00    	       mov eax, [eax]
      0x000054e5:                 8B4014    	       mov eax, [eax + 20]
      0x000054e8:           8B80EC010000    	       mov eax, [eax + 492]
      0x000054ee:                   85C0    	       test eax, eax
      0x000054f0:           0F84C8050000    	       jz/eq +1480 (0x00005abe)
      0x000054f6:               8944244C    	       mov [esp + 76], eax
      0x000054fa:                 8B0424    	       mov eax, [esp]
      0x000054fd:                 8B4008    	       mov eax, [eax + 8]
      0x00005500:           8B80B4000000    	       mov eax, [eax + 180]
      0x00005506:                   85C0    	       test eax, eax
      0x00005508:           0F84C1050000    	       jz/eq +1473 (0x00005acf)
      0x0000550e:         83B8840000000A    	       cmp [eax + 132], 10
      0x00005515:           0F8CC5050000    	       jl/nge +1477 (0x00005ae0)
      0x0000551b:               8B4C244C    	       mov ecx, [esp + 76]
      0x0000551f:                 8B0424    	       mov eax, [esp]
      0x00005522:                 8B4004    	       mov eax, [eax + 4]
      0x00005525:           8B80EC000000    	       mov eax, [eax + 236]
      0x0000552b:                 FF5024    	       call [eax + 36]
      suspend point dex PC: 0x0002
      GC map objects:  v10 ([sp + #76]), v13 ([sp + #100]), v14 ([sp + #104])
      0x0000552e:               89442424    	       mov [esp + 36], eax
      0x00005532:                 8B0424    	       mov eax, [esp]
      0x00005535:                   8B00    	       mov eax, [eax]
      0x00005537:               8944244C    	       mov [esp + 76], eax
      0x0000553b:               8B44244C    	       mov eax, [esp + 76]
      0x0000553f:                   8500    	       test eax, [eax]
      suspend point dex PC: 0x0008
      GC map objects:  v0 ([sp + #36]), v10 ([sp + #76]), v13 ([sp + #100]), v14 ([sp + #104])
      0x00005541:               89442420    	       mov [esp + 32], eax
      0x00005545:               8B4C2420    	       mov ecx, [esp + 32]
      0x00005549:                 8B0424    	       mov eax, [esp]
      0x0000554c:                 8B4004    	       mov eax, [eax + 4]
      0x0000554f:           8B80F0000000    	       mov eax, [eax + 240]
      0x00005555:                 FF5024    	       call [eax + 36]
      suspend point dex PC: 0x0008
      GC map objects:  v0 ([sp + #36]), v10 ([sp + #76]), v13 ([sp + #100]), v14 ([sp + #104])
      0x00005558:               8944244C    	       mov [esp + 76], eax
      0x0000555c:                 8B0424    	       mov eax, [esp]
      0x0000555f:                   8B00    	       mov eax, [eax]
      0x00005561:                 8B4014    	       mov eax, [eax + 20]
      0x00005564:           8B80D8020000    	       mov eax, [eax + 728]
      0x0000556a:                   85C0    	       test eax, eax
      0x0000556c:           0F847F050000    	       jz/eq +1407 (0x00005af1)
      0x00005572:               89442450    	       mov [esp + 80], eax
      0x00005576:                 8B0424    	       mov eax, [esp]
      0x00005579:                 8B4008    	       mov eax, [eax + 8]
      0x0000557c:                 8B407C    	       mov eax, [eax + 124]
      0x0000557f:                   85C0    	       test eax, eax
      0x00005581:           0F847B050000    	       jz/eq +1403 (0x00005b02)
      0x00005587:         83B8840000000A    	       cmp [eax + 132], 10
      0x0000558e:           0F8C7F050000    	       jl/nge +1407 (0x00005b13)
      0x00005594:               8B4C2424    	       mov ecx, [esp + 36]
      0x00005598:               8B54244C    	       mov edx, [esp + 76]
      0x0000559c:               8B5C2450    	       mov ebx, [esp + 80]
      0x000055a0:                 8B0424    	       mov eax, [esp]
      0x000055a3:                 8B4004    	       mov eax, [eax + 4]
      0x000055a6:           8B80B0000000    	       mov eax, [eax + 176]
      0x000055ac:                 FF5024    	       call [eax + 36]
      suspend point dex PC: 0x000e
      GC map objects:  v0 ([sp + #36]), v10 ([sp + #76]), v11 ([sp + #80]), v13 ([sp + #100]), v14 ([sp + #104])
      0x000055af:               89442444    	       mov [esp + 68], eax
      0x000055b3:               8B442444    	       mov eax, [esp + 68]
      0x000055b7:                   8500    	       test eax, [eax]
      suspend point dex PC: 0x0012
      GC map objects:  v0 ([sp + #36]), v8 ([sp + #68]), v10 ([sp + #76]), v11 ([sp + #80]), v13 ([sp + #100]), v14 ([sp + #104])
      0x000055b9:               89442420    	       mov [esp + 32], eax
      0x000055bd:               8B4C2420    	       mov ecx, [esp + 32]
      0x000055c1:                 8B0424    	       mov eax, [esp]
      0x000055c4:                 8B4004    	       mov eax, [eax + 4]
      0x000055c7:           8B800C010000    	       mov eax, [eax + 268]
      0x000055cd:                 FF5024    	       call [eax + 36]
      suspend point dex PC: 0x0012
      GC map objects:  v0 ([sp + #36]), v8 ([sp + #68]), v10 ([sp + #76]), v11 ([sp + #80]), v13 ([sp + #100]), v14 ([sp + #104])
      0x000055d0:               8944244C    	       mov [esp + 76], eax
      0x000055d4:                 8B0424    	       mov eax, [esp]
      0x000055d7:                   8B00    	       mov eax, [eax]
      0x000055d9:                 8B4014    	       mov eax, [eax + 20]
      0x000055dc:           8B80FC010000    	       mov eax, [eax + 508]
      0x000055e2:                   85C0    	       test eax, eax
      0x000055e4:           0F843A050000    	       jz/eq +1338 (0x00005b24)
      0x000055ea:               89442450    	       mov [esp + 80], eax
      0x000055ee:                 8B0424    	       mov eax, [esp]
      0x000055f1:                 8B4008    	       mov eax, [eax + 8]
      0x000055f4:                 8B407C    	       mov eax, [eax + 124]
      0x000055f7:                   85C0    	       test eax, eax
      0x000055f9:           0F8436050000    	       jz/eq +1334 (0x00005b35)
      0x000055ff:         83B8840000000A    	       cmp [eax + 132], 10
      0x00005606:           0F8C3A050000    	       jl/nge +1338 (0x00005b46)
      0x0000560c:               8B4C244C    	       mov ecx, [esp + 76]
      0x00005610:               8B542444    	       mov edx, [esp + 68]
      0x00005614:               8B5C2450    	       mov ebx, [esp + 80]
      0x00005618:                 8B0424    	       mov eax, [esp]
      0x0000561b:                 8B4004    	       mov eax, [eax + 4]
      0x0000561e:           8B80B0000000    	       mov eax, [eax + 176]
      0x00005624:                 FF5024    	       call [eax + 36]
      suspend point dex PC: 0x0018
      GC map objects:  v0 ([sp + #36]), v8 ([sp + #68]), v10 ([sp + #76]), v11 ([sp + #80]), v13 ([sp + #100]), v14 ([sp + #104])
      0x00005627:               89442440    	       mov [esp + 64], eax
      0x0000562b:                 8B0424    	       mov eax, [esp]
      0x0000562e:                   8B00    	       mov eax, [eax]
      0x00005630:                 8B4014    	       mov eax, [eax + 20]
      0x00005633:           8B80B8020000    	       mov eax, [eax + 696]
      0x00005639:                   85C0    	       test eax, eax
      0x0000563b:           0F8416050000    	       jz/eq +1302 (0x00005b57)
      0x00005641:               8944244C    	       mov [esp + 76], eax
      0x00005645:       C744245000000000    	       mov [esp + 80], 0
      0x0000564d:               8B442464    	       mov eax, [esp + 100]
      0x00005651:                   8500    	       test eax, [eax]
      suspend point dex PC: 0x001f
      GC map objects:  v0 ([sp + #36]), v7 ([sp + #64]), v8 ([sp + #68]), v10 ([sp + #76]), v13 ([sp + #100]), v14 ([sp + #104])
      0x00005653:               89442420    	       mov [esp + 32], eax
      0x00005657:               8B4C2420    	       mov ecx, [esp + 32]
      0x0000565b:               8B54244C    	       mov edx, [esp + 76]
      0x0000565f:               8B5C2450    	       mov ebx, [esp + 80]
      0x00005663:                   8B01    	       mov eax, [ecx]
      0x00005665:           8B805C020000    	       mov eax, [eax + 604]
      0x0000566b:                 FF5024    	       call [eax + 36]
      suspend point dex PC: 0x001f
      GC map objects:  v0 ([sp + #36]), v7 ([sp + #64]), v8 ([sp + #68]), v10 ([sp + #76]), v13 ([sp + #100]), v14 ([sp + #104])
      0x0000566e:               8944244C    	       mov [esp + 76], eax
      0x00005672:               8B44244C    	       mov eax, [esp + 76]
      0x00005676:                   8500    	       test eax, [eax]
      suspend point dex PC: 0x0023
      GC map objects:  v0 ([sp + #36]), v7 ([sp + #64]), v8 ([sp + #68]), v10 ([sp + #76]), v13 ([sp + #100]), v14 ([sp + #104])
      0x00005678:               89442420    	       mov [esp + 32], eax
      0x0000567c:               8B4C2420    	       mov ecx, [esp + 32]
      0x00005680:                   8B01    	       mov eax, [ecx]
      0x00005682:           8B80E0010000    	       mov eax, [eax + 480]
      0x00005688:                 FF5024    	       call [eax + 36]
      suspend point dex PC: 0x0023
      GC map objects:  v0 ([sp + #36]), v7 ([sp + #64]), v8 ([sp + #68]), v10 ([sp + #76]), v13 ([sp + #100]), v14 ([sp + #104])
      0x0000568b:               89442430    	       mov [esp + 48], eax
      0x0000568f:                 8B0C24    	       mov ecx, [esp]
      0x00005692:             B822000000    	       mov eax, 34
      0x00005697:         64FF1514010000    	       call fs:[0x114]  ; pAllocObject
      suspend point dex PC: 0x0027
      GC map objects:  v0 ([sp + #36]), v3 ([sp + #48]), v7 ([sp + #64]), v8 ([sp + #68]), v10 ([sp + #76]), v13 ([sp + #100]), v14 ([sp + #104])
      0x0000569e:               8944242C    	       mov [esp + 44], eax
      0x000056a2:                 8B0424    	       mov eax, [esp]
      0x000056a5:                   8B00    	       mov eax, [eax]
      0x000056a7:               8944244C    	       mov [esp + 76], eax
      0x000056ab:               8B44244C    	       mov eax, [esp + 76]
      0x000056af:                   8500    	       test eax, [eax]
      suspend point dex PC: 0x002b
      GC map objects:  v0 ([sp + #36]), v2 ([sp + #44]), v3 ([sp + #48]), v7 ([sp + #64]), v8 ([sp + #68]), v10 ([sp + #76]), v13 ([sp + #100]), v14 ([sp + #104])
      0x000056b1:               89442420    	       mov [esp + 32], eax
      0x000056b5:               8B4C2420    	       mov ecx, [esp + 32]
      0x000056b9:                 8B0424    	       mov eax, [esp]
      0x000056bc:                 8B4004    	       mov eax, [eax + 4]
      0x000056bf:           8B80F0000000    	       mov eax, [eax + 240]
      0x000056c5:                 FF5024    	       call [eax + 36]
      suspend point dex PC: 0x002b
      GC map objects:  v0 ([sp + #36]), v2 ([sp + #44]), v3 ([sp + #48]), v7 ([sp + #64]), v8 ([sp + #68]), v10 ([sp + #76]), v13 ([sp + #100]), v14 ([sp + #104])
      0x000056c8:               8944244C    	       mov [esp + 76], eax
      0x000056cc:               8B44242C    	       mov eax, [esp + 44]
      0x000056d0:                   8500    	       test eax, [eax]
      suspend point dex PC: 0x002f
      GC map objects:  v0 ([sp + #36]), v2 ([sp + #44]), v3 ([sp + #48]), v7 ([sp + #64]), v8 ([sp + #68]), v10 ([sp + #76]), v13 ([sp + #100]), v14 ([sp + #104])
      0x000056d2:               89442420    	       mov [esp + 32], eax
      0x000056d6:               8B4C2420    	       mov ecx, [esp + 32]
      0x000056da:               8B542468    	       mov edx, [esp + 104]
      0x000056de:               8B5C2430    	       mov ebx, [esp + 48]
      0x000056e2:               FF742430    	       push [esp + 48]
      0x000056e6:               8F442410    	       pop [esp + 16]
      0x000056ea:               FF74244C    	       push [esp + 76]
      0x000056ee:               8F442414    	       pop [esp + 20]
      0x000056f2:                 8B0424    	       mov eax, [esp]
      0x000056f5:                 8B4004    	       mov eax, [eax + 4]
      0x000056f8:           8B80B8000000    	       mov eax, [eax + 184]
      0x000056fe:                 FF5024    	       call [eax + 36]
      suspend point dex PC: 0x002f
      GC map objects:  v0 ([sp + #36]), v2 ([sp + #44]), v3 ([sp + #48]), v7 ([sp + #64]), v8 ([sp + #68]), v10 ([sp + #76]), v13 ([sp + #100]), v14 ([sp + #104])
      0x00005701:                 8B0424    	       mov eax, [esp]
      0x00005704:                   8B00    	       mov eax, [eax]
      0x00005706:                 8B4014    	       mov eax, [eax + 20]
      0x00005709:           8B80D8020000    	       mov eax, [eax + 728]
      0x0000570f:                   85C0    	       test eax, eax
      0x00005711:           0F8451040000    	       jz/eq +1105 (0x00005b68)
      0x00005717:               8944244C    	       mov [esp + 76], eax
      0x0000571b:                 8B0424    	       mov eax, [esp]
      0x0000571e:                 8B4008    	       mov eax, [eax + 8]
      0x00005721:                 8B407C    	       mov eax, [eax + 124]
      0x00005724:                   85C0    	       test eax, eax
      0x00005726:           0F844D040000    	       jz/eq +1101 (0x00005b79)
      0x0000572c:         83B8840000000A    	       cmp [eax + 132], 10
      0x00005733:           0F8C51040000    	       jl/nge +1105 (0x00005b8a)
      0x00005739:               8B4C2424    	       mov ecx, [esp + 36]
      0x0000573d:               8B54242C    	       mov edx, [esp + 44]
      0x00005741:               8B5C244C    	       mov ebx, [esp + 76]
      0x00005745:                 8B0424    	       mov eax, [esp]
      0x00005748:                 8B4004    	       mov eax, [eax + 4]
      0x0000574b:           8B80B0000000    	       mov eax, [eax + 176]
      0x00005751:                 FF5024    	       call [eax + 36]
      suspend point dex PC: 0x0034
      GC map objects:  v0 ([sp + #36]), v2 ([sp + #44]), v3 ([sp + #48]), v7 ([sp + #64]), v8 ([sp + #68]), v10 ([sp + #76]), v13 ([sp + #100]), v14 ([sp + #104])
      0x00005754:               89442448    	       mov [esp + 72], eax
      0x00005758:               8B442448    	       mov eax, [esp + 72]
      0x0000575c:                   8500    	       test eax, [eax]
      suspend point dex PC: 0x0038
      GC map objects:  v0 ([sp + #36]), v2 ([sp + #44]), v3 ([sp + #48]), v7 ([sp + #64]), v8 ([sp + #68]), v9 ([sp + #72]), v10 ([sp + #76]), v13 ([sp + #100]), v14 ([sp + #104])
      0x0000575e:               89442420    	       mov [esp + 32], eax
      0x00005762:               8B4C2420    	       mov ecx, [esp + 32]
      0x00005766:                 8B0424    	       mov eax, [esp]
      0x00005769:                 8B4004    	       mov eax, [eax + 4]
      0x0000576c:           8B800C010000    	       mov eax, [eax + 268]
      0x00005772:                 FF5024    	       call [eax + 36]
      suspend point dex PC: 0x0038
      GC map objects:  v0 ([sp + #36]), v2 ([sp + #44]), v3 ([sp + #48]), v7 ([sp + #64]), v8 ([sp + #68]), v9 ([sp + #72]), v10 ([sp + #76]), v13 ([sp + #100]), v14 ([sp + #104])
      0x00005775:               8944244C    	       mov [esp + 76], eax
      0x00005779:                 8B0424    	       mov eax, [esp]
      0x0000577c:                   8B00    	       mov eax, [eax]
      0x0000577e:                 8B4014    	       mov eax, [eax + 20]
      0x00005781:           8B80FC010000    	       mov eax, [eax + 508]
      0x00005787:                   85C0    	       test eax, eax
      0x00005789:           0F840C040000    	       jz/eq +1036 (0x00005b9b)
      0x0000578f:               89442450    	       mov [esp + 80], eax
      0x00005793:                 8B0424    	       mov eax, [esp]
      0x00005796:                 8B4008    	       mov eax, [eax + 8]
      0x00005799:                 8B407C    	       mov eax, [eax + 124]
      0x0000579c:                   85C0    	       test eax, eax
      0x0000579e:           0F8408040000    	       jz/eq +1032 (0x00005bac)
      0x000057a4:         83B8840000000A    	       cmp [eax + 132], 10
      0x000057ab:           0F8C0C040000    	       jl/nge +1036 (0x00005bbd)
      0x000057b1:               8B4C244C    	       mov ecx, [esp + 76]
      0x000057b5:               8B542448    	       mov edx, [esp + 72]
      0x000057b9:               8B5C2450    	       mov ebx, [esp + 80]
      0x000057bd:                 8B0424    	       mov eax, [esp]
      0x000057c0:                 8B4004    	       mov eax, [eax + 4]
      0x000057c3:           8B80B0000000    	       mov eax, [eax + 176]
      0x000057c9:                 FF5024    	       call [eax + 36]
      suspend point dex PC: 0x003e
      GC map objects:  v0 ([sp + #36]), v2 ([sp + #44]), v3 ([sp + #48]), v7 ([sp + #64]), v8 ([sp + #68]), v9 ([sp + #72]), v10 ([sp + #76]), v11 ([sp + #80]), v13 ([sp + #100]), v14 ([sp + #104])
      0x000057cc:               89442438    	       mov [esp + 56], eax
      0x000057d0:               8B4C2438    	       mov ecx, [esp + 56]
      0x000057d4:               8B542440    	       mov edx, [esp + 64]
      0x000057d8:                 8B0424    	       mov eax, [esp]
      0x000057db:                 8B4004    	       mov eax, [eax + 4]
      0x000057de:           8B8098000000    	       mov eax, [eax + 152]
      0x000057e4:                 FF5024    	       call [eax + 36]
      suspend point dex PC: 0x0042
      GC map objects:  v0 ([sp + #36]), v2 ([sp + #44]), v3 ([sp + #48]), v5 ([sp + #56]), v7 ([sp + #64]), v8 ([sp + #68]), v9 ([sp + #72]), v10 ([sp + #76]), v11 ([sp + #80]), v13 ([sp + #100]), v14 ([sp + #104])
      0x000057e7:               89442428    	       mov [esp + 40], eax
      0x000057eb:               8B442444    	       mov eax, [esp + 68]
      0x000057ef:                   8500    	       test eax, [eax]
      suspend point dex PC: 0x0046
      GC map objects:  v0 ([sp + #36]), v1 ([sp + #40]), v2 ([sp + #44]), v3 ([sp + #48]), v5 ([sp + #56]), v7 ([sp + #64]), v8 ([sp + #68]), v9 ([sp + #72]), v10 ([sp + #76]), v11 ([sp + #80]), v13 ([sp + #100]), v14 ([sp + #104])
      0x000057f1:               89442420    	       mov [esp + 32], eax
      0x000057f5:               8B4C2420    	       mov ecx, [esp + 32]
      0x000057f9:                 8B0424    	       mov eax, [esp]
      0x000057fc:                 8B4004    	       mov eax, [eax + 4]
      0x000057ff:           8B800C010000    	       mov eax, [eax + 268]
      0x00005805:                 FF5024    	       call [eax + 36]
      suspend point dex PC: 0x0046
      GC map objects:  v0 ([sp + #36]), v1 ([sp + #40]), v2 ([sp + #44]), v3 ([sp + #48]), v5 ([sp + #56]), v7 ([sp + #64]), v8 ([sp + #68]), v9 ([sp + #72]), v10 ([sp + #76]), v11 ([sp + #80]), v13 ([sp + #100]), v14 ([sp + #104])
      0x00005808:               8944244C    	       mov [esp + 76], eax
      0x0000580c:                 8B0424    	       mov eax, [esp]
      0x0000580f:                   8B00    	       mov eax, [eax]
      0x00005811:                 8B4014    	       mov eax, [eax + 20]
      0x00005814:           8B80FC010000    	       mov eax, [eax + 508]
      0x0000581a:                   85C0    	       test eax, eax
      0x0000581c:           0F84AC030000    	       jz/eq +940 (0x00005bce)
      0x00005822:               89442450    	       mov [esp + 80], eax
      0x00005826:                 8B0424    	       mov eax, [esp]
      0x00005829:                 8B4008    	       mov eax, [eax + 8]
      0x0000582c:                 8B407C    	       mov eax, [eax + 124]
      0x0000582f:                   85C0    	       test eax, eax
      0x00005831:           0F84A8030000    	       jz/eq +936 (0x00005bdf)
      0x00005837:         83B8840000000A    	       cmp [eax + 132], 10
      0x0000583e:           0F8CAC030000    	       jl/nge +940 (0x00005bf0)
      0x00005844:               8B4C244C    	       mov ecx, [esp + 76]
      0x00005848:               8B542444    	       mov edx, [esp + 68]
      0x0000584c:               8B5C2450    	       mov ebx, [esp + 80]
      0x00005850:               FF742428    	       push [esp + 40]
      0x00005854:               8F442410    	       pop [esp + 16]
      0x00005858:                 8B0424    	       mov eax, [esp]
      0x0000585b:                 8B4004    	       mov eax, [eax + 4]
      0x0000585e:           8B80B4000000    	       mov eax, [eax + 180]
      0x00005864:                 FF5024    	       call [eax + 36]
      suspend point dex PC: 0x004c
      GC map objects:  v0 ([sp + #36]), v1 ([sp + #40]), v2 ([sp + #44]), v3 ([sp + #48]), v5 ([sp + #56]), v7 ([sp + #64]), v8 ([sp + #68]), v9 ([sp + #72]), v10 ([sp + #76]), v11 ([sp + #80]), v13 ([sp + #100]), v14 ([sp + #104])
      0x00005867:               8B442444    	       mov eax, [esp + 68]
      0x0000586b:                   8500    	       test eax, [eax]
      suspend point dex PC: 0x004f
      GC map objects:  v0 ([sp + #36]), v1 ([sp + #40]), v2 ([sp + #44]), v3 ([sp + #48]), v5 ([sp + #56]), v7 ([sp + #64]), v8 ([sp + #68]), v9 ([sp + #72]), v10 ([sp + #76]), v11 ([sp + #80]), v13 ([sp + #100]), v14 ([sp + #104])
      0x0000586d:               89442420    	       mov [esp + 32], eax
      0x00005871:               8B4C2420    	       mov ecx, [esp + 32]
      0x00005875:                 8B0424    	       mov eax, [esp]
      0x00005878:                 8B4004    	       mov eax, [eax + 4]
      0x0000587b:           8B800C010000    	       mov eax, [eax + 268]
      0x00005881:                 FF5024    	       call [eax + 36]
      suspend point dex PC: 0x004f
      GC map objects:  v0 ([sp + #36]), v1 ([sp + #40]), v2 ([sp + #44]), v3 ([sp + #48]), v5 ([sp + #56]), v7 ([sp + #64]), v8 ([sp + #68]), v9 ([sp + #72]), v10 ([sp + #76]), v11 ([sp + #80]), v13 ([sp + #100]), v14 ([sp + #104])
      0x00005884:               8944244C    	       mov [esp + 76], eax
      0x00005888:                 8B0424    	       mov eax, [esp]
      0x0000588b:                   8B00    	       mov eax, [eax]
      0x0000588d:                 8B4014    	       mov eax, [eax + 20]
      0x00005890:           8B80FC010000    	       mov eax, [eax + 508]
      0x00005896:                   85C0    	       test eax, eax
      0x00005898:           0F8463030000    	       jz/eq +867 (0x00005c01)
      0x0000589e:               89442450    	       mov [esp + 80], eax
      0x000058a2:                 8B0424    	       mov eax, [esp]
      0x000058a5:                 8B4008    	       mov eax, [eax + 8]
      0x000058a8:                 8B407C    	       mov eax, [eax + 124]
      0x000058ab:                   85C0    	       test eax, eax
      0x000058ad:           0F845F030000    	       jz/eq +863 (0x00005c12)
      0x000058b3:         83B8840000000A    	       cmp [eax + 132], 10
      0x000058ba:           0F8C63030000    	       jl/nge +867 (0x00005c23)
      0x000058c0:               8B4C244C    	       mov ecx, [esp + 76]
      0x000058c4:               8B542444    	       mov edx, [esp + 68]
      0x000058c8:               8B5C2450    	       mov ebx, [esp + 80]
      0x000058cc:                 8B0424    	       mov eax, [esp]
      0x000058cf:                 8B4004    	       mov eax, [eax + 4]
      0x000058d2:           8B80B0000000    	       mov eax, [eax + 176]
      0x000058d8:                 FF5024    	       call [eax + 36]
      suspend point dex PC: 0x0055
      GC map objects:  v0 ([sp + #36]), v1 ([sp + #40]), v2 ([sp + #44]), v3 ([sp + #48]), v5 ([sp + #56]), v7 ([sp + #64]), v8 ([sp + #68]), v9 ([sp + #72]), v10 ([sp + #76]), v11 ([sp + #80]), v13 ([sp + #100]), v14 ([sp + #104])
      0x000058db:               8944243C    	       mov [esp + 60], eax
      0x000058df:                 8B0424    	       mov eax, [esp]
      0x000058e2:                   8B00    	       mov eax, [eax]
      0x000058e4:                 8B4014    	       mov eax, [eax + 20]
      0x000058e7:           8B8094020000    	       mov eax, [eax + 660]
      0x000058ed:                   85C0    	       test eax, eax
      0x000058ef:           0F843F030000    	       jz/eq +831 (0x00005c34)
      0x000058f5:               8944244C    	       mov [esp + 76], eax
      0x000058f9:                 8B0C24    	       mov ecx, [esp]
      0x000058fc:             B831000000    	       mov eax, 49
      0x00005901:         64FF1514010000    	       call fs:[0x114]  ; pAllocObject
      suspend point dex PC: 0x005b
      GC map objects:  v0 ([sp + #36]), v1 ([sp + #40]), v2 ([sp + #44]), v3 ([sp + #48]), v5 ([sp + #56]), v6 ([sp + #60]), v7 ([sp + #64]), v8 ([sp + #68]), v9 ([sp + #72]), v10 ([sp + #76]), v11 ([sp + #80]), v13 ([sp + #100]), v14 ([sp + #104])
      0x00005908:               89442450    	       mov [esp + 80], eax
      0x0000590c:               8B442450    	       mov eax, [esp + 80]
      0x00005910:                   8500    	       test eax, [eax]
      suspend point dex PC: 0x005d
      GC map objects:  v0 ([sp + #36]), v1 ([sp + #40]), v2 ([sp + #44]), v3 ([sp + #48]), v5 ([sp + #56]), v6 ([sp + #60]), v7 ([sp + #64]), v8 ([sp + #68]), v9 ([sp + #72]), v10 ([sp + #76]), v11 ([sp + #80]), v13 ([sp + #100]), v14 ([sp + #104])
      0x00005912:               89442420    	       mov [esp + 32], eax
      0x00005916:               8B4C2420    	       mov ecx, [esp + 32]
      0x0000591a:                 8B0424    	       mov eax, [esp]
      0x0000591d:                 8B4004    	       mov eax, [eax + 4]
      0x00005920:           8B8010010000    	       mov eax, [eax + 272]
      0x00005926:                 FF5024    	       call [eax + 36]
      suspend point dex PC: 0x005d
      GC map objects:  v0 ([sp + #36]), v1 ([sp + #40]), v2 ([sp + #44]), v3 ([sp + #48]), v5 ([sp + #56]), v6 ([sp + #60]), v7 ([sp + #64]), v8 ([sp + #68]), v9 ([sp + #72]), v10 ([sp + #76]), v11 ([sp + #80]), v13 ([sp + #100]), v14 ([sp + #104])
      0x00005929:                 8B0424    	       mov eax, [esp]
      0x0000592c:                   8B00    	       mov eax, [eax]
      0x0000592e:                 8B4014    	       mov eax, [eax + 20]
      0x00005931:           8B8084020000    	       mov eax, [eax + 644]
      0x00005937:                   85C0    	       test eax, eax
      0x00005939:           0F8406030000    	       jz/eq +774 (0x00005c45)
      0x0000593f:               89442454    	       mov [esp + 84], eax
      0x00005943:               8B442450    	       mov eax, [esp + 80]
      0x00005947:                   8500    	       test eax, [eax]
      suspend point dex PC: 0x0062
      GC map objects:  v0 ([sp + #36]), v1 ([sp + #40]), v2 ([sp + #44]), v3 ([sp + #48]), v5 ([sp + #56]), v6 ([sp + #60]), v7 ([sp + #64]), v8 ([sp + #68]), v9 ([sp + #72]), v10 ([sp + #76]), v11 ([sp + #80]), v12 ([sp + #84]), v13 ([sp + #100]), v14 ([sp + #104])
      0x00005949:               89442420    	       mov [esp + 32], eax
      0x0000594d:               8B4C2420    	       mov ecx, [esp + 32]
      0x00005951:               8B542454    	       mov edx, [esp + 84]
      0x00005955:                 8B0424    	       mov eax, [esp]
      0x00005958:                 8B4004    	       mov eax, [eax + 4]
      0x0000595b:           8B8018010000    	       mov eax, [eax + 280]
      0x00005961:                 FF5024    	       call [eax + 36]
      suspend point dex PC: 0x0062
      GC map objects:  v0 ([sp + #36]), v1 ([sp + #40]), v2 ([sp + #44]), v3 ([sp + #48]), v5 ([sp + #56]), v6 ([sp + #60]), v7 ([sp + #64]), v8 ([sp + #68]), v9 ([sp + #72]), v10 ([sp + #76]), v11 ([sp + #80]), v12 ([sp + #84]), v13 ([sp + #100]), v14 ([sp + #104])
      0x00005964:               89442450    	       mov [esp + 80], eax
      0x00005968:                 8B0424    	       mov eax, [esp]
      0x0000596b:                 8B4008    	       mov eax, [eax + 8]
      0x0000596e:           8B80D8000000    	       mov eax, [eax + 216]
      0x00005974:                   85C0    	       test eax, eax
      0x00005976:           0F84DA020000    	       jz/eq +730 (0x00005c56)
      0x0000597c:         83B8840000000A    	       cmp [eax + 132], 10
      0x00005983:           0F8CDE020000    	       jl/nge +734 (0x00005c67)
      0x00005989:               8B4C243C    	       mov ecx, [esp + 60]
      0x0000598d:                 8B0424    	       mov eax, [esp]
      0x00005990:                 8B4004    	       mov eax, [eax + 4]
      0x00005993:           8B8024010000    	       mov eax, [eax + 292]
      0x00005999:                 FF5024    	       call [eax + 36]
      suspend point dex PC: 0x0066
      GC map objects:  v0 ([sp + #36]), v1 ([sp + #40]), v2 ([sp + #44]), v3 ([sp + #48]), v5 ([sp + #56]), v6 ([sp + #60]), v7 ([sp + #64]), v8 ([sp + #68]), v9 ([sp + #72]), v10 ([sp + #76]), v11 ([sp + #80]), v12 ([sp + #84]), v13 ([sp + #100]), v14 ([sp + #104])
      0x0000599c:               89442454    	       mov [esp + 84], eax
      0x000059a0:               8B442450    	       mov eax, [esp + 80]
      0x000059a4:                   8500    	       test eax, [eax]
      suspend point dex PC: 0x006a
      GC map objects:  v0 ([sp + #36]), v1 ([sp + #40]), v2 ([sp + #44]), v3 ([sp + #48]), v5 ([sp + #56]), v6 ([sp + #60]), v7 ([sp + #64]), v8 ([sp + #68]), v9 ([sp + #72]), v10 ([sp + #76]), v11 ([sp + #80]), v13 ([sp + #100]), v14 ([sp + #104])
      0x000059a6:               89442420    	       mov [esp + 32], eax
      0x000059aa:               8B4C2420    	       mov ecx, [esp + 32]
      0x000059ae:               8B542454    	       mov edx, [esp + 84]
      0x000059b2:                 8B0424    	       mov eax, [esp]
      0x000059b5:                 8B4004    	       mov eax, [eax + 4]
      0x000059b8:           8B8014010000    	       mov eax, [eax + 276]
      0x000059be:                 FF5024    	       call [eax + 36]
      suspend point dex PC: 0x006a
      GC map objects:  v0 ([sp + #36]), v1 ([sp + #40]), v2 ([sp + #44]), v3 ([sp + #48]), v5 ([sp + #56]), v6 ([sp + #60]), v7 ([sp + #64]), v8 ([sp + #68]), v9 ([sp + #72]), v10 ([sp + #76]), v11 ([sp + #80]), v13 ([sp + #100]), v14 ([sp + #104])
      0x000059c1:               89442450    	       mov [esp + 80], eax
      0x000059c5:               8B442450    	       mov eax, [esp + 80]
      0x000059c9:                   8500    	       test eax, [eax]
      suspend point dex PC: 0x006e
      GC map objects:  v0 ([sp + #36]), v1 ([sp + #40]), v2 ([sp + #44]), v3 ([sp + #48]), v5 ([sp + #56]), v6 ([sp + #60]), v7 ([sp + #64]), v8 ([sp + #68]), v9 ([sp + #72]), v10 ([sp + #76]), v11 ([sp + #80]), v13 ([sp + #100]), v14 ([sp + #104])
      0x000059cb:               89442420    	       mov [esp + 32], eax
      0x000059cf:               8B4C2420    	       mov ecx, [esp + 32]
      0x000059d3:                 8B0424    	       mov eax, [esp]
      0x000059d6:                 8B4004    	       mov eax, [eax + 4]
      0x000059d9:           8B801C010000    	       mov eax, [eax + 284]
      0x000059df:                 FF5024    	       call [eax + 36]
      suspend point dex PC: 0x006e
      GC map objects:  v0 ([sp + #36]), v1 ([sp + #40]), v2 ([sp + #44]), v3 ([sp + #48]), v5 ([sp + #56]), v6 ([sp + #60]), v7 ([sp + #64]), v8 ([sp + #68]), v9 ([sp + #72]), v10 ([sp + #76]), v11 ([sp + #80]), v13 ([sp + #100]), v14 ([sp + #104])
      0x000059e2:               89442450    	       mov [esp + 80], eax
      0x000059e6:                 8B0424    	       mov eax, [esp]
      0x000059e9:                 8B4008    	       mov eax, [eax + 8]
      0x000059ec:                 8B4028    	       mov eax, [eax + 40]
      0x000059ef:                   85C0    	       test eax, eax
      0x000059f1:           0F8481020000    	       jz/eq +641 (0x00005c78)
      0x000059f7:         83B8840000000A    	       cmp [eax + 132], 10
      0x000059fe:           0F8C85020000    	       jl/nge +645 (0x00005c89)
      0x00005a04:               8B4C244C    	       mov ecx, [esp + 76]
      0x00005a08:               8B542450    	       mov edx, [esp + 80]
      0x00005a0c:                 8B0424    	       mov eax, [esp]
      0x00005a0f:                 8B4004    	       mov eax, [eax + 4]
      0x00005a12:                 8B402C    	       mov eax, [eax + 44]
      0x00005a15:                 FF5024    	       call [eax + 36]
      suspend point dex PC: 0x0072
      GC map objects:  v0 ([sp + #36]), v1 ([sp + #40]), v2 ([sp + #44]), v3 ([sp + #48]), v5 ([sp + #56]), v6 ([sp + #60]), v7 ([sp + #64]), v8 ([sp + #68]), v9 ([sp + #72]), v10 ([sp + #76]), v11 ([sp + #80]), v13 ([sp + #100]), v14 ([sp + #104])
      0x00005a18:                 83C45C    	       add esp, 92
      0x00005a1b:                     C3    	       ret 
      catch entry dex PC: 0x0076
      0x00005a1c:         648B0584000000    	       mov eax, fs:[0x84]  ; exception
      0x00005a23: 64C7058400000000000000    	       mov fs:[0x84], 0  ; exception
      0x00005a2e:               89442434    	       mov [esp + 52], eax
      0x00005a32:               8B442434    	       mov eax, [esp + 52]
      0x00005a36:                   8500    	       test eax, [eax]
      suspend point dex PC: 0x0077
      GC map objects:  v4 ([sp + #52]), v13 ([sp + #100]), v14 ([sp + #104])
      0x00005a38:               89442420    	       mov [esp + 32], eax
      0x00005a3c:               8B4C2420    	       mov ecx, [esp + 32]
      0x00005a40:                   8B01    	       mov eax, [ecx]
      0x00005a42:           8B80D8010000    	       mov eax, [eax + 472]
      0x00005a48:                 FF5024    	       call [eax + 36]
      suspend point dex PC: 0x0077
      GC map objects:  v4 ([sp + #52]), v13 ([sp + #100]), v14 ([sp + #104])
      0x00005a4b:                   EBCB    	       jmp -53 (0x00005a18)
      catch entry dex PC: 0x007b
      0x00005a4d:         648B0584000000    	       mov eax, fs:[0x84]  ; exception
      0x00005a54: 64C7058400000000000000    	       mov fs:[0x84], 0  ; exception
      0x00005a5f:               89442434    	       mov [esp + 52], eax
      0x00005a63:               8B442434    	       mov eax, [esp + 52]
      0x00005a67:                   8500    	       test eax, [eax]
      suspend point dex PC: 0x007c
      GC map objects:  v4 ([sp + #52]), v13 ([sp + #100]), v14 ([sp + #104])
      0x00005a69:               89442420    	       mov [esp + 32], eax
      0x00005a6d:               8B4C2420    	       mov ecx, [esp + 32]
      0x00005a71:                   8B01    	       mov eax, [ecx]
      0x00005a73:           8B80D8010000    	       mov eax, [eax + 472]
      0x00005a79:                 FF5024    	       call [eax + 36]
      suspend point dex PC: 0x007c
      GC map objects:  v4 ([sp + #52]), v13 ([sp + #100]), v14 ([sp + #104])
      0x00005a7c:                   EB9A    	       jmp -102 (0x00005a18)
      catch entry dex PC: 0x0080
      0x00005a7e:         648B0584000000    	       mov eax, fs:[0x84]  ; exception
      0x00005a85: 64C7058400000000000000    	       mov fs:[0x84], 0  ; exception
      0x00005a90:               89442434    	       mov [esp + 52], eax
      0x00005a94:               8B442434    	       mov eax, [esp + 52]
      0x00005a98:                   8500    	       test eax, [eax]
      suspend point dex PC: 0x0081
      GC map objects:  v4 ([sp + #52]), v13 ([sp + #100]), v14 ([sp + #104])
      0x00005a9a:               89442420    	       mov [esp + 32], eax
      0x00005a9e:               8B4C2420    	       mov ecx, [esp + 32]
      0x00005aa2:                   8B01    	       mov eax, [ecx]
      0x00005aa4:           8B80D8010000    	       mov eax, [eax + 472]
      0x00005aaa:                 FF5024    	       call [eax + 36]
      suspend point dex PC: 0x0081
      GC map objects:  v4 ([sp + #52]), v13 ([sp + #100]), v14 ([sp + #104])
      0x00005aad:             E966FFFFFF    	       jmp -154 (0x00005a18)
      0x00005ab2:         64FF155C020000    	       call fs:[0x25c]  ; pTestSuspend
      suspend point dex PC: 0x0000
      GC map objects:  v13 ([sp + #100]), v14 ([sp + #104])
      0x00005ab9:             E922FAFFFF    	       jmp -1502 (0x000054e0)
      0x00005abe:             B878000000    	       mov eax, 120
      0x00005ac3:         64FF154C010000    	       call fs:[0x14c]  ; pResolveString
      suspend point dex PC: 0x0000
      GC map objects:  v13 ([sp + #100]), v14 ([sp + #104])
      0x00005aca:             E927FAFFFF    	       jmp -1497 (0x000054f6)
      0x00005acf:             B82A000000    	       mov eax, 42
      0x00005ad4:         64FF1548010000    	       call fs:[0x148]  ; pInitializeType
      suspend point dex PC: 0x0002
      GC map objects:  v10 ([sp + #76]), v13 ([sp + #100]), v14 ([sp + #104])
      0x00005adb:             E92EFAFFFF    	       jmp -1490 (0x0000550e)
      0x00005ae0:             B82A000000    	       mov eax, 42
      0x00005ae5:         64FF1540010000    	       call fs:[0x140]  ; pInitializeStaticStorage
      suspend point dex PC: 0x0002
      GC map objects:  v10 ([sp + #76]), v13 ([sp + #100]), v14 ([sp + #104])
      0x00005aec:             E92AFAFFFF    	       jmp -1494 (0x0000551b)
      0x00005af1:             B8B3000000    	       mov eax, 179
      0x00005af6:         64FF154C010000    	       call fs:[0x14c]  ; pResolveString
      suspend point dex PC: 0x000c
      GC map objects:  v0 ([sp + #36]), v10 ([sp + #76]), v13 ([sp + #100]), v14 ([sp + #104])
      0x00005afd:             E970FAFFFF    	       jmp -1424 (0x00005572)
      0x00005b02:             B81C000000    	       mov eax, 28
      0x00005b07:         64FF1548010000    	       call fs:[0x148]  ; pInitializeType
      suspend point dex PC: 0x000e
      GC map objects:  v0 ([sp + #36]), v10 ([sp + #76]), v11 ([sp + #80]), v13 ([sp + #100]), v14 ([sp + #104])
      0x00005b0e:             E974FAFFFF    	       jmp -1420 (0x00005587)
      0x00005b13:             B81C000000    	       mov eax, 28
      0x00005b18:         64FF1540010000    	       call fs:[0x140]  ; pInitializeStaticStorage
      suspend point dex PC: 0x000e
      GC map objects:  v0 ([sp + #36]), v10 ([sp + #76]), v11 ([sp + #80]), v13 ([sp + #100]), v14 ([sp + #104])
      0x00005b1f:             E970FAFFFF    	       jmp -1424 (0x00005594)
      0x00005b24:             B87C000000    	       mov eax, 124
      0x00005b29:         64FF154C010000    	       call fs:[0x14c]  ; pResolveString
      suspend point dex PC: 0x0016
      GC map objects:  v0 ([sp + #36]), v8 ([sp + #68]), v10 ([sp + #76]), v11 ([sp + #80]), v13 ([sp + #100]), v14 ([sp + #104])
      0x00005b30:             E9B5FAFFFF    	       jmp -1355 (0x000055ea)
      0x00005b35:             B81C000000    	       mov eax, 28
      0x00005b3a:         64FF1548010000    	       call fs:[0x148]  ; pInitializeType
      suspend point dex PC: 0x0018
      GC map objects:  v0 ([sp + #36]), v8 ([sp + #68]), v10 ([sp + #76]), v11 ([sp + #80]), v13 ([sp + #100]), v14 ([sp + #104])
      0x00005b41:             E9B9FAFFFF    	       jmp -1351 (0x000055ff)
      0x00005b46:             B81C000000    	       mov eax, 28
      0x00005b4b:         64FF1540010000    	       call fs:[0x140]  ; pInitializeStaticStorage
      suspend point dex PC: 0x0018
      GC map objects:  v0 ([sp + #36]), v8 ([sp + #68]), v10 ([sp + #76]), v11 ([sp + #80]), v13 ([sp + #100]), v14 ([sp + #104])
      0x00005b52:             E9B5FAFFFF    	       jmp -1355 (0x0000560c)
      0x00005b57:             B8AB000000    	       mov eax, 171
      0x00005b5c:         64FF154C010000    	       call fs:[0x14c]  ; pResolveString
      suspend point dex PC: 0x001c
      GC map objects:  v0 ([sp + #36]), v7 ([sp + #64]), v8 ([sp + #68]), v10 ([sp + #76]), v11 ([sp + #80]), v13 ([sp + #100]), v14 ([sp + #104])
      0x00005b63:             E9D9FAFFFF    	       jmp -1319 (0x00005641)
      0x00005b68:             B8B3000000    	       mov eax, 179
      0x00005b6d:         64FF154C010000    	       call fs:[0x14c]  ; pResolveString
      suspend point dex PC: 0x0032
      GC map objects:  v0 ([sp + #36]), v2 ([sp + #44]), v3 ([sp + #48]), v7 ([sp + #64]), v8 ([sp + #68]), v10 ([sp + #76]), v13 ([sp + #100]), v14 ([sp + #104])
      0x00005b74:             E99EFBFFFF    	       jmp -1122 (0x00005717)
      0x00005b79:             B81C000000    	       mov eax, 28
      0x00005b7e:         64FF1548010000    	       call fs:[0x148]  ; pInitializeType
      suspend point dex PC: 0x0034
      GC map objects:  v0 ([sp + #36]), v2 ([sp + #44]), v3 ([sp + #48]), v7 ([sp + #64]), v8 ([sp + #68]), v10 ([sp + #76]), v13 ([sp + #100]), v14 ([sp + #104])
      0x00005b85:             E9A2FBFFFF    	       jmp -1118 (0x0000572c)
      0x00005b8a:             B81C000000    	       mov eax, 28
      0x00005b8f:         64FF1540010000    	       call fs:[0x140]  ; pInitializeStaticStorage
      suspend point dex PC: 0x0034
      GC map objects:  v0 ([sp + #36]), v2 ([sp + #44]), v3 ([sp + #48]), v7 ([sp + #64]), v8 ([sp + #68]), v10 ([sp + #76]), v13 ([sp + #100]), v14 ([sp + #104])
      0x00005b96:             E99EFBFFFF    	       jmp -1122 (0x00005739)
      0x00005b9b:             B87C000000    	       mov eax, 124
      0x00005ba0:         64FF154C010000    	       call fs:[0x14c]  ; pResolveString
      suspend point dex PC: 0x003c
      GC map objects:  v0 ([sp + #36]), v2 ([sp + #44]), v3 ([sp + #48]), v7 ([sp + #64]), v8 ([sp + #68]), v9 ([sp + #72]), v10 ([sp + #76]), v13 ([sp + #100]), v14 ([sp + #104])
      0x00005ba7:             E9E3FBFFFF    	       jmp -1053 (0x0000578f)
      0x00005bac:             B81C000000    	       mov eax, 28
      0x00005bb1:         64FF1548010000    	       call fs:[0x148]  ; pInitializeType
      suspend point dex PC: 0x003e
      GC map objects:  v0 ([sp + #36]), v2 ([sp + #44]), v3 ([sp + #48]), v7 ([sp + #64]), v8 ([sp + #68]), v9 ([sp + #72]), v10 ([sp + #76]), v11 ([sp + #80]), v13 ([sp + #100]), v14 ([sp + #104])
      0x00005bb8:             E9E7FBFFFF    	       jmp -1049 (0x000057a4)
      0x00005bbd:             B81C000000    	       mov eax, 28
      0x00005bc2:         64FF1540010000    	       call fs:[0x140]  ; pInitializeStaticStorage
      suspend point dex PC: 0x003e
      GC map objects:  v0 ([sp + #36]), v2 ([sp + #44]), v3 ([sp + #48]), v7 ([sp + #64]), v8 ([sp + #68]), v9 ([sp + #72]), v10 ([sp + #76]), v11 ([sp + #80]), v13 ([sp + #100]), v14 ([sp + #104])
      0x00005bc9:             E9E3FBFFFF    	       jmp -1053 (0x000057b1)
      0x00005bce:             B87C000000    	       mov eax, 124
      0x00005bd3:         64FF154C010000    	       call fs:[0x14c]  ; pResolveString
      suspend point dex PC: 0x004a
      GC map objects:  v0 ([sp + #36]), v1 ([sp + #40]), v2 ([sp + #44]), v3 ([sp + #48]), v5 ([sp + #56]), v7 ([sp + #64]), v8 ([sp + #68]), v9 ([sp + #72]), v10 ([sp + #76]), v11 ([sp + #80]), v13 ([sp + #100]), v14 ([sp + #104])
      0x00005bda:             E943FCFFFF    	       jmp -957 (0x00005822)
      0x00005bdf:             B81C000000    	       mov eax, 28
      0x00005be4:         64FF1548010000    	       call fs:[0x148]  ; pInitializeType
      suspend point dex PC: 0x004c
      GC map objects:  v0 ([sp + #36]), v1 ([sp + #40]), v2 ([sp + #44]), v3 ([sp + #48]), v5 ([sp + #56]), v7 ([sp + #64]), v8 ([sp + #68]), v9 ([sp + #72]), v10 ([sp + #76]), v11 ([sp + #80]), v13 ([sp + #100]), v14 ([sp + #104])
      0x00005beb:             E947FCFFFF    	       jmp -953 (0x00005837)
      0x00005bf0:             B81C000000    	       mov eax, 28
      0x00005bf5:         64FF1540010000    	       call fs:[0x140]  ; pInitializeStaticStorage
      suspend point dex PC: 0x004c
      GC map objects:  v0 ([sp + #36]), v1 ([sp + #40]), v2 ([sp + #44]), v3 ([sp + #48]), v5 ([sp + #56]), v7 ([sp + #64]), v8 ([sp + #68]), v9 ([sp + #72]), v10 ([sp + #76]), v11 ([sp + #80]), v13 ([sp + #100]), v14 ([sp + #104])
      0x00005bfc:             E943FCFFFF    	       jmp -957 (0x00005844)
      0x00005c01:             B87C000000    	       mov eax, 124
      0x00005c06:         64FF154C010000    	       call fs:[0x14c]  ; pResolveString
      suspend point dex PC: 0x0053
      GC map objects:  v0 ([sp + #36]), v1 ([sp + #40]), v2 ([sp + #44]), v3 ([sp + #48]), v5 ([sp + #56]), v7 ([sp + #64]), v8 ([sp + #68]), v9 ([sp + #72]), v10 ([sp + #76]), v11 ([sp + #80]), v13 ([sp + #100]), v14 ([sp + #104])
      0x00005c0d:             E98CFCFFFF    	       jmp -884 (0x0000589e)
      0x00005c12:             B81C000000    	       mov eax, 28
      0x00005c17:         64FF1548010000    	       call fs:[0x148]  ; pInitializeType
      suspend point dex PC: 0x0055
      GC map objects:  v0 ([sp + #36]), v1 ([sp + #40]), v2 ([sp + #44]), v3 ([sp + #48]), v5 ([sp + #56]), v7 ([sp + #64]), v8 ([sp + #68]), v9 ([sp + #72]), v10 ([sp + #76]), v11 ([sp + #80]), v13 ([sp + #100]), v14 ([sp + #104])
      0x00005c1e:             E990FCFFFF    	       jmp -880 (0x000058b3)
      0x00005c23:             B81C000000    	       mov eax, 28
      0x00005c28:         64FF1540010000    	       call fs:[0x140]  ; pInitializeStaticStorage
      suspend point dex PC: 0x0055
      GC map objects:  v0 ([sp + #36]), v1 ([sp + #40]), v2 ([sp + #44]), v3 ([sp + #48]), v5 ([sp + #56]), v7 ([sp + #64]), v8 ([sp + #68]), v9 ([sp + #72]), v10 ([sp + #76]), v11 ([sp + #80]), v13 ([sp + #100]), v14 ([sp + #104])
      0x00005c2f:             E98CFCFFFF    	       jmp -884 (0x000058c0)
      0x00005c34:             B8A2000000    	       mov eax, 162
      0x00005c39:         64FF154C010000    	       call fs:[0x14c]  ; pResolveString
      suspend point dex PC: 0x0059
      GC map objects:  v0 ([sp + #36]), v1 ([sp + #40]), v2 ([sp + #44]), v3 ([sp + #48]), v5 ([sp + #56]), v6 ([sp + #60]), v7 ([sp + #64]), v8 ([sp + #68]), v9 ([sp + #72]), v10 ([sp + #76]), v11 ([sp + #80]), v13 ([sp + #100]), v14 ([sp + #104])
      0x00005c40:             E9B0FCFFFF    	       jmp -848 (0x000058f5)
      0x00005c45:             B89E000000    	       mov eax, 158
      0x00005c4a:         64FF154C010000    	       call fs:[0x14c]  ; pResolveString
      suspend point dex PC: 0x0060
      GC map objects:  v0 ([sp + #36]), v1 ([sp + #40]), v2 ([sp + #44]), v3 ([sp + #48]), v5 ([sp + #56]), v6 ([sp + #60]), v7 ([sp + #64]), v8 ([sp + #68]), v9 ([sp + #72]), v10 ([sp + #76]), v11 ([sp + #80]), v13 ([sp + #100]), v14 ([sp + #104])
      0x00005c51:             E9E9FCFFFF    	       jmp -791 (0x0000593f)
      0x00005c56:             B833000000    	       mov eax, 51
      0x00005c5b:         64FF1548010000    	       call fs:[0x148]  ; pInitializeType
      suspend point dex PC: 0x0066
      GC map objects:  v0 ([sp + #36]), v1 ([sp + #40]), v2 ([sp + #44]), v3 ([sp + #48]), v5 ([sp + #56]), v6 ([sp + #60]), v7 ([sp + #64]), v8 ([sp + #68]), v9 ([sp + #72]), v10 ([sp + #76]), v11 ([sp + #80]), v12 ([sp + #84]), v13 ([sp + #100]), v14 ([sp + #104])
      0x00005c62:             E915FDFFFF    	       jmp -747 (0x0000597c)
      0x00005c67:             B833000000    	       mov eax, 51
      0x00005c6c:         64FF1540010000    	       call fs:[0x140]  ; pInitializeStaticStorage
      suspend point dex PC: 0x0066
      GC map objects:  v0 ([sp + #36]), v1 ([sp + #40]), v2 ([sp + #44]), v3 ([sp + #48]), v5 ([sp + #56]), v6 ([sp + #60]), v7 ([sp + #64]), v8 ([sp + #68]), v9 ([sp + #72]), v10 ([sp + #76]), v11 ([sp + #80]), v12 ([sp + #84]), v13 ([sp + #100]), v14 ([sp + #104])
      0x00005c73:             E911FDFFFF    	       jmp -751 (0x00005989)
      0x00005c78:             B807000000    	       mov eax, 7
      0x00005c7d:         64FF1548010000    	       call fs:[0x148]  ; pInitializeType
      suspend point dex PC: 0x0072
      GC map objects:  v0 ([sp + #36]), v1 ([sp + #40]), v2 ([sp + #44]), v3 ([sp + #48]), v5 ([sp + #56]), v6 ([sp + #60]), v7 ([sp + #64]), v8 ([sp + #68]), v9 ([sp + #72]), v10 ([sp + #76]), v11 ([sp + #80]), v13 ([sp + #100]), v14 ([sp + #104])
      0x00005c84:             E96EFDFFFF    	       jmp -658 (0x000059f7)
      0x00005c89:             B807000000    	       mov eax, 7
      0x00005c8e:         64FF1540010000    	       call fs:[0x140]  ; pInitializeStaticStorage
      suspend point dex PC: 0x0072
      GC map objects:  v0 ([sp + #36]), v1 ([sp + #40]), v2 ([sp + #44]), v3 ([sp + #48]), v5 ([sp + #56]), v6 ([sp + #60]), v7 ([sp + #64]), v8 ([sp + #68]), v9 ([sp + #72]), v10 ([sp + #76]), v11 ([sp + #80]), v13 ([sp + #100]), v14 ([sp + #104])
      0x00005c95:             E96AFDFFFF    	       jmp -662 (0x00005a04)
16: Lcom/ljj/patch/util/HotFix; (offset=0x00002e1c) (type_idx=27) (StatusInitialized) (OatClassAllCompiled)
  0: void com.ljj.patch.util.HotFix.<init>() (dex_method_idx=37)
    DEX CODE:
      0x0000: 7010 3f00 0000           	| invoke-direct {v0}, void java.lang.Object.<init>() // method@63
      0x0003: 0e00                     	| return-void
    OatMethodOffsets (offset=0x00002e20)
      code_offset: 0x00005cbc 
      gc_map: (offset=0x00002e3c)
    OatQuickMethodHeader (offset=0x00005ca0)
      mapping_table: (offset=0x000031e0)
      vmap_table: (offset=0x00003438)
      v65535/r8
    QuickMethodFrameInfo
      frame_size_in_bytes: 32
      core_spill_mask: 0x00000100 (r8)
      fp_spill_mask: 0x00000000 
      vr_stack_locations:
      	ins: v0[sp + #36]
      	method*: v1[sp + #0]
      	outs: v0[sp + #4]
    CODE: (code_offset=0x00005cbc size_offset=0x00005cb8 size=74)...
      0x00005cbc:         85842400E0FFFF    	       test eax, [esp + -8192]
      suspend point dex PC: 0x0000
      GC map objects:  v0 ([sp + #36])
      0x00005cc3:                 83EC1C    	       sub esp, 28
      0x00005cc6:                 890424    	       mov [esp], eax
      0x00005cc9:               894C2424    	       mov [esp + 36], ecx
      0x00005ccd:     6466833D0000000000    	       cmpw fs:[0x0], 0  ; state_and_flags
      0x00005cd6:           0F8521000000    	       jnz/ne +33 (0x00005cfd)
      0x00005cdc:               8B442424    	       mov eax, [esp + 36]
      0x00005ce0:                   8500    	       test eax, [eax]
      suspend point dex PC: 0x0000
      GC map objects:  v0 ([sp + #36])
      0x00005ce2:               89442414    	       mov [esp + 20], eax
      0x00005ce6:               8B4C2414    	       mov ecx, [esp + 20]
      0x00005cea:                 8B0424    	       mov eax, [esp]
      0x00005ced:                 8B4004    	       mov eax, [eax + 4]
      0x00005cf0:           8B8008010000    	       mov eax, [eax + 264]
      0x00005cf6:                 FF5024    	       call [eax + 36]
      suspend point dex PC: 0x0000
      GC map objects:  v0 ([sp + #36])
      0x00005cf9:                 83C41C    	       add esp, 28
      0x00005cfc:                     C3    	       ret 
      0x00005cfd:         64FF155C020000    	       call fs:[0x25c]  ; pTestSuspend
      suspend point dex PC: 0x0000
      GC map objects:  v0 ([sp + #36])
      0x00005d04:                   EBD6    	       jmp -42 (0x00005cdc)
  1: void com.ljj.patch.util.HotFix.init(android.content.Context) (dex_method_idx=38)
    DEX CODE:
      0x0000: 1a03 9400                	| const-string v3, "hackDir" // string@148
      0x0002: 1204                     	| const/4 v4, #+0
      0x0003: 6e30 0500 3504           	| invoke-virtual {v5, v3, v4}, java.io.File android.content.Context.getDir(java.lang.String, int) // method@5
      0x0006: 0c01                     	| move-result-object v1
      0x0007: 2202 2300                	| new-instance v2, java.io.File // type@35
      0x0009: 1a03 9300                	| const-string v3, "hack.apk" // string@147
      0x000b: 7030 2c00 1203           	| invoke-direct {v2, v1, v3}, void java.io.File.<init>(java.io.File, java.lang.String) // method@44
      0x000e: 1a03 9300                	| const-string v3, "hack.apk" // string@147
      0x0010: 6e10 2f00 0200           	| invoke-virtual {v2}, java.lang.String java.io.File.getAbsolutePath() // method@47
      0x0013: 0c04                     	| move-result-object v4
      0x0014: 7130 2100 3504           	| invoke-static {v5, v3, v4}, void com.ljj.patch.util.AssetUtils.copyAssets(android.content.Context, java.lang.String, java.lang.String) // method@33
      0x0017: 6e10 2f00 0200           	| invoke-virtual {v2}, java.lang.String java.io.File.getAbsolutePath() // method@47
      0x001a: 0c03                     	| move-result-object v3
      0x001b: 7120 2400 3500           	| invoke-static {v5, v3}, void com.ljj.patch.util.DexUtils.inject(android.content.Context, java.lang.String) // method@36
      0x001e: 0e00                     	| return-void
      0x001f: 0d00                     	| move-exception v0
      0x0020: 6e10 3300 0000           	| invoke-virtual {v0}, void java.io.IOException.printStackTrace() // method@51
      0x0023: 28fb                     	| goto -5
    OatMethodOffsets (offset=0x00002e24)
      code_offset: 0x00005d2c 
      gc_map: (offset=0x0000313c)
    OatQuickMethodHeader (offset=0x00005d10)
      mapping_table: (offset=0x000033b8)
      vmap_table: (offset=0x00003438)
      v65535/r8
    QuickMethodFrameInfo
      frame_size_in_bytes: 48
      core_spill_mask: 0x00000100 (r8)
      fp_spill_mask: 0x00000000 
      vr_stack_locations:
      	locals: v0[sp + #20] v1[sp + #24] v2[sp + #28] v3[sp + #32] v4[sp + #36]
      	ins: v5[sp + #52]
      	method*: v6[sp + #0]
      	outs: v0[sp + #4] v1[sp + #8] v2[sp + #12]
    CODE: (code_offset=0x00005d2c size_offset=0x00005d28 size=571)...
      0x00005d2c:         85842400E0FFFF    	       test eax, [esp + -8192]
      suspend point dex PC: 0x0000
      GC map objects:  v5 ([sp + #52])
      0x00005d33:                 83EC2C    	       sub esp, 44
      0x00005d36:                 890424    	       mov [esp], eax
      0x00005d39:               894C2434    	       mov [esp + 52], ecx
      0x00005d3d:     6466833D0000000000    	       cmpw fs:[0x0], 0  ; state_and_flags
      0x00005d46:           0F8598010000    	       jnz/ne +408 (0x00005ee4)
      0x00005d4c:                 8B0424    	       mov eax, [esp]
      0x00005d4f:                   8B00    	       mov eax, [eax]
      0x00005d51:                 8B4014    	       mov eax, [eax + 20]
      0x00005d54:           8B805C020000    	       mov eax, [eax + 604]
      0x00005d5a:                   85C0    	       test eax, eax
      0x00005d5c:           0F848E010000    	       jz/eq +398 (0x00005ef0)
      0x00005d62:               89442420    	       mov [esp + 32], eax
      0x00005d66:       C744242400000000    	       mov [esp + 36], 0
      0x00005d6e:               8B442434    	       mov eax, [esp + 52]
      0x00005d72:                   8500    	       test eax, [eax]
      suspend point dex PC: 0x0003
      GC map objects:  v3 ([sp + #32]), v5 ([sp + #52])
      0x00005d74:               89442410    	       mov [esp + 16], eax
      0x00005d78:               8B4C2410    	       mov ecx, [esp + 16]
      0x00005d7c:               8B542420    	       mov edx, [esp + 32]
      0x00005d80:               8B5C2424    	       mov ebx, [esp + 36]
      0x00005d84:                   8B01    	       mov eax, [ecx]
      0x00005d86:           8B805C020000    	       mov eax, [eax + 604]
      0x00005d8c:                 FF5024    	       call [eax + 36]
      suspend point dex PC: 0x0003
      GC map objects:  v3 ([sp + #32]), v5 ([sp + #52])
      0x00005d8f:               89442418    	       mov [esp + 24], eax
      0x00005d93:                 8B0C24    	       mov ecx, [esp]
      0x00005d96:             B823000000    	       mov eax, 35
      0x00005d9b:         64FF1514010000    	       call fs:[0x114]  ; pAllocObject
      suspend point dex PC: 0x0007
      GC map objects:  v1 ([sp + #24]), v3 ([sp + #32]), v5 ([sp + #52])
      0x00005da2:               8944241C    	       mov [esp + 28], eax
      0x00005da6:                 8B0424    	       mov eax, [esp]
      0x00005da9:                   8B00    	       mov eax, [eax]
      0x00005dab:                 8B4014    	       mov eax, [eax + 20]
      0x00005dae:           8B8058020000    	       mov eax, [eax + 600]
      0x00005db4:                   85C0    	       test eax, eax
      0x00005db6:           0F8445010000    	       jz/eq +325 (0x00005f01)
      0x00005dbc:               89442420    	       mov [esp + 32], eax
      0x00005dc0:               8B44241C    	       mov eax, [esp + 28]
      0x00005dc4:                   8500    	       test eax, [eax]
      suspend point dex PC: 0x000b
      GC map objects:  v1 ([sp + #24]), v2 ([sp + #28]), v3 ([sp + #32]), v5 ([sp + #52])
      0x00005dc6:               89442410    	       mov [esp + 16], eax
      0x00005dca:               8B4C2410    	       mov ecx, [esp + 16]
      0x00005dce:               8B542418    	       mov edx, [esp + 24]
      0x00005dd2:               8B5C2420    	       mov ebx, [esp + 32]
      0x00005dd6:                 8B0424    	       mov eax, [esp]
      0x00005dd9:                 8B4004    	       mov eax, [eax + 4]
      0x00005ddc:           8B80BC000000    	       mov eax, [eax + 188]
      0x00005de2:                 FF5024    	       call [eax + 36]
      suspend point dex PC: 0x000b
      GC map objects:  v1 ([sp + #24]), v2 ([sp + #28]), v3 ([sp + #32]), v5 ([sp + #52])
      0x00005de5:                 8B0424    	       mov eax, [esp]
      0x00005de8:                   8B00    	       mov eax, [eax]
      0x00005dea:                 8B4014    	       mov eax, [eax + 20]
      0x00005ded:           8B8058020000    	       mov eax, [eax + 600]
      0x00005df3:                   85C0    	       test eax, eax
      0x00005df5:           0F8417010000    	       jz/eq +279 (0x00005f12)
      0x00005dfb:               89442420    	       mov [esp + 32], eax
      0x00005dff:               8B44241C    	       mov eax, [esp + 28]
      0x00005e03:                   8500    	       test eax, [eax]
      suspend point dex PC: 0x0010
      GC map objects:  v1 ([sp + #24]), v2 ([sp + #28]), v3 ([sp + #32]), v5 ([sp + #52])
      0x00005e05:               89442410    	       mov [esp + 16], eax
      0x00005e09:               8B4C2410    	       mov ecx, [esp + 16]
      0x00005e0d:                 8B0424    	       mov eax, [esp]
      0x00005e10:                 8B4004    	       mov eax, [eax + 4]
      0x00005e13:           8B80C8000000    	       mov eax, [eax + 200]
      0x00005e19:                 FF5024    	       call [eax + 36]
      suspend point dex PC: 0x0010
      GC map objects:  v1 ([sp + #24]), v2 ([sp + #28]), v3 ([sp + #32]), v5 ([sp + #52])
      0x00005e1c:               89442424    	       mov [esp + 36], eax
      0x00005e20:                 8B0424    	       mov eax, [esp]
      0x00005e23:                 8B4008    	       mov eax, [eax + 8]
      0x00005e26:                 8B4070    	       mov eax, [eax + 112]
      0x00005e29:                   85C0    	       test eax, eax
      0x00005e2b:           0F84F2000000    	       jz/eq +242 (0x00005f23)
      0x00005e31:         83B8840000000A    	       cmp [eax + 132], 10
      0x00005e38:           0F8CF6000000    	       jl/nge +246 (0x00005f34)
      0x00005e3e:               8B4C2434    	       mov ecx, [esp + 52]
      0x00005e42:               8B542420    	       mov edx, [esp + 32]
      0x00005e46:               8B5C2424    	       mov ebx, [esp + 36]
      0x00005e4a:                 8B0424    	       mov eax, [esp]
      0x00005e4d:                 8B4004    	       mov eax, [eax + 4]
      0x00005e50:           8B8090000000    	       mov eax, [eax + 144]
      0x00005e56:                 FF5024    	       call [eax + 36]
      suspend point dex PC: 0x0014
      GC map objects:  v1 ([sp + #24]), v2 ([sp + #28]), v3 ([sp + #32]), v4 ([sp + #36]), v5 ([sp + #52])
      0x00005e59:               8B44241C    	       mov eax, [esp + 28]
      0x00005e5d:                   8500    	       test eax, [eax]
      suspend point dex PC: 0x0017
      GC map objects:  v1 ([sp + #24]), v2 ([sp + #28]), v3 ([sp + #32]), v4 ([sp + #36]), v5 ([sp + #52])
      0x00005e5f:               89442410    	       mov [esp + 16], eax
      0x00005e63:               8B4C2410    	       mov ecx, [esp + 16]
      0x00005e67:                 8B0424    	       mov eax, [esp]
      0x00005e6a:                 8B4004    	       mov eax, [eax + 4]
      0x00005e6d:           8B80C8000000    	       mov eax, [eax + 200]
      0x00005e73:                 FF5024    	       call [eax + 36]
      suspend point dex PC: 0x0017
      GC map objects:  v1 ([sp + #24]), v2 ([sp + #28]), v3 ([sp + #32]), v4 ([sp + #36]), v5 ([sp + #52])
      0x00005e76:               89442420    	       mov [esp + 32], eax
      0x00005e7a:                 8B0424    	       mov eax, [esp]
      0x00005e7d:                 8B4008    	       mov eax, [eax + 8]
      0x00005e80:                 8B4074    	       mov eax, [eax + 116]
      0x00005e83:                   85C0    	       test eax, eax
      0x00005e85:           0F84BA000000    	       jz/eq +186 (0x00005f45)
      0x00005e8b:         83B8840000000A    	       cmp [eax + 132], 10
      0x00005e92:           0F8CBE000000    	       jl/nge +190 (0x00005f56)
      0x00005e98:               8B4C2434    	       mov ecx, [esp + 52]
      0x00005e9c:               8B542420    	       mov edx, [esp + 32]
      0x00005ea0:                 8B0424    	       mov eax, [esp]
      0x00005ea3:                 8B4004    	       mov eax, [eax + 4]
      0x00005ea6:           8B809C000000    	       mov eax, [eax + 156]
      0x00005eac:                 FF5024    	       call [eax + 36]
      suspend point dex PC: 0x001b
      GC map objects:  v1 ([sp + #24]), v2 ([sp + #28]), v3 ([sp + #32]), v4 ([sp + #36]), v5 ([sp + #52])
      0x00005eaf:                 83C42C    	       add esp, 44
      0x00005eb2:                     C3    	       ret 
      catch entry dex PC: 0x001f
      0x00005eb3:         648B0584000000    	       mov eax, fs:[0x84]  ; exception
      0x00005eba: 64C7058400000000000000    	       mov fs:[0x84], 0  ; exception
      0x00005ec5:               89442414    	       mov [esp + 20], eax
      0x00005ec9:               8B442414    	       mov eax, [esp + 20]
      0x00005ecd:                   8500    	       test eax, [eax]
      suspend point dex PC: 0x0020
      GC map objects:  v0 ([sp + #20]), v1 ([sp + #24]), v2 ([sp + #28]), v3 ([sp + #32]), v4 ([sp + #36]), v5 ([sp + #52])
      0x00005ecf:               89442410    	       mov [esp + 16], eax
      0x00005ed3:               8B4C2410    	       mov ecx, [esp + 16]
      0x00005ed7:                   8B01    	       mov eax, [ecx]
      0x00005ed9:           8B80D8010000    	       mov eax, [eax + 472]
      0x00005edf:                 FF5024    	       call [eax + 36]
      suspend point dex PC: 0x0020
      GC map objects:  v0 ([sp + #20]), v1 ([sp + #24]), v2 ([sp + #28]), v3 ([sp + #32]), v4 ([sp + #36]), v5 ([sp + #52])
      0x00005ee2:                   EBCB    	       jmp -53 (0x00005eaf)
      0x00005ee4:         64FF155C020000    	       call fs:[0x25c]  ; pTestSuspend
      suspend point dex PC: 0x0000
      GC map objects:  v5 ([sp + #52])
      0x00005eeb:             E95CFEFFFF    	       jmp -420 (0x00005d4c)
      0x00005ef0:             B894000000    	       mov eax, 148
      0x00005ef5:         64FF154C010000    	       call fs:[0x14c]  ; pResolveString
      suspend point dex PC: 0x0000
      GC map objects:  v5 ([sp + #52])
      0x00005efc:             E961FEFFFF    	       jmp -415 (0x00005d62)
      0x00005f01:             B893000000    	       mov eax, 147
      0x00005f06:         64FF154C010000    	       call fs:[0x14c]  ; pResolveString
      suspend point dex PC: 0x0009
      GC map objects:  v1 ([sp + #24]), v2 ([sp + #28]), v3 ([sp + #32]), v5 ([sp + #52])
      0x00005f0d:             E9AAFEFFFF    	       jmp -342 (0x00005dbc)
      0x00005f12:             B893000000    	       mov eax, 147
      0x00005f17:         64FF154C010000    	       call fs:[0x14c]  ; pResolveString
      suspend point dex PC: 0x000e
      GC map objects:  v1 ([sp + #24]), v2 ([sp + #28]), v3 ([sp + #32]), v5 ([sp + #52])
      0x00005f1e:             E9D8FEFFFF    	       jmp -296 (0x00005dfb)
      0x00005f23:             B819000000    	       mov eax, 25
      0x00005f28:         64FF1548010000    	       call fs:[0x148]  ; pInitializeType
      suspend point dex PC: 0x0014
      GC map objects:  v1 ([sp + #24]), v2 ([sp + #28]), v3 ([sp + #32]), v4 ([sp + #36]), v5 ([sp + #52])
      0x00005f2f:             E9FDFEFFFF    	       jmp -259 (0x00005e31)
      0x00005f34:             B819000000    	       mov eax, 25
      0x00005f39:         64FF1540010000    	       call fs:[0x140]  ; pInitializeStaticStorage
      suspend point dex PC: 0x0014
      GC map objects:  v1 ([sp + #24]), v2 ([sp + #28]), v3 ([sp + #32]), v4 ([sp + #36]), v5 ([sp + #52])
      0x00005f40:             E9F9FEFFFF    	       jmp -263 (0x00005e3e)
      0x00005f45:             B81A000000    	       mov eax, 26
      0x00005f4a:         64FF1548010000    	       call fs:[0x148]  ; pInitializeType
      suspend point dex PC: 0x001b
      GC map objects:  v1 ([sp + #24]), v2 ([sp + #28]), v3 ([sp + #32]), v4 ([sp + #36]), v5 ([sp + #52])
      0x00005f51:             E935FFFFFF    	       jmp -203 (0x00005e8b)
      0x00005f56:             B81A000000    	       mov eax, 26
      0x00005f5b:         64FF1540010000    	       call fs:[0x140]  ; pInitializeStaticStorage
      suspend point dex PC: 0x001b
      GC map objects:  v1 ([sp + #24]), v2 ([sp + #28]), v3 ([sp + #32]), v4 ([sp + #36]), v5 ([sp + #52])
      0x00005f62:             E931FFFFFF    	       jmp -207 (0x00005e98)
  2: void com.ljj.patch.util.HotFix.inject(android.content.Context, java.lang.String) (dex_method_idx=39)
    DEX CODE:
      0x0000: 2200 2300                	| new-instance v0, java.io.File // type@35
      0x0002: 7020 2d00 4000           	| invoke-direct {v0, v4}, void java.io.File.<init>(java.lang.String) // method@45
      0x0005: 6e10 2e00 0000           	| invoke-virtual {v0}, boolean java.io.File.exists() // method@46
      0x0008: 0a01                     	| move-result v1
      0x0009: 3801 0c00                	| if-eqz v1, +12
      0x000b: 1a01 a200                	| const-string v1, "ljj" // string@162
      0x000d: 1a02 9f00                	| const-string v2, "inject: " // string@159
      0x000f: 7120 0800 2100           	| invoke-static {v1, v2}, int android.util.Log.i(java.lang.String, java.lang.String) // method@8
      0x0012: 7120 2400 4300           	| invoke-static {v3, v4}, void com.ljj.patch.util.DexUtils.inject(android.content.Context, java.lang.String) // method@36
      0x0015: 0e00                     	| return-void
    OatMethodOffsets (offset=0x00002e28)
      code_offset: 0x00005f8c 
      gc_map: (offset=0x00003184)
    OatQuickMethodHeader (offset=0x00005f70)
      mapping_table: (offset=0x000033ec)
      vmap_table: (offset=0x00003438)
      v65535/r8
    QuickMethodFrameInfo
      frame_size_in_bytes: 48
      core_spill_mask: 0x00000100 (r8)
      fp_spill_mask: 0x00000000 
      vr_stack_locations:
      	locals: v0[sp + #28] v1[sp + #32] v2[sp + #36]
      	ins: v3[sp + #52] v4[sp + #56]
      	method*: v5[sp + #0]
      	outs: v0[sp + #4] v1[sp + #8]
    CODE: (code_offset=0x00005f8c size_offset=0x00005f88 size=418)...
      0x00005f8c:         85842400E0FFFF    	       test eax, [esp + -8192]
      suspend point dex PC: 0x0000
      GC map objects:  v3 ([sp + #52]), v4 ([sp + #56])
      0x00005f93:                 83EC2C    	       sub esp, 44
      0x00005f96:                 890424    	       mov [esp], eax
      0x00005f99:               894C2434    	       mov [esp + 52], ecx
      0x00005f9d:               89542438    	       mov [esp + 56], edx
      0x00005fa1:     6466833D0000000000    	       cmpw fs:[0x0], 0  ; state_and_flags
      0x00005faa:           0F850C010000    	       jnz/ne +268 (0x000060bc)
      0x00005fb0:                 8B0C24    	       mov ecx, [esp]
      0x00005fb3:             B823000000    	       mov eax, 35
      0x00005fb8:         64FF1514010000    	       call fs:[0x114]  ; pAllocObject
      suspend point dex PC: 0x0000
      GC map objects:  v3 ([sp + #52]), v4 ([sp + #56])
      0x00005fbf:               8944241C    	       mov [esp + 28], eax
      0x00005fc3:               8B44241C    	       mov eax, [esp + 28]
      0x00005fc7:                   8500    	       test eax, [eax]
      suspend point dex PC: 0x0002
      GC map objects:  v0 ([sp + #28]), v3 ([sp + #52]), v4 ([sp + #56])
      0x00005fc9:               89442418    	       mov [esp + 24], eax
      0x00005fcd:               8B4C2418    	       mov ecx, [esp + 24]
      0x00005fd1:               8B542438    	       mov edx, [esp + 56]
      0x00005fd5:                 8B0424    	       mov eax, [esp]
      0x00005fd8:                 8B4004    	       mov eax, [eax + 4]
      0x00005fdb:           8B80C0000000    	       mov eax, [eax + 192]
      0x00005fe1:                 FF5024    	       call [eax + 36]
      suspend point dex PC: 0x0002
      GC map objects:  v0 ([sp + #28]), v3 ([sp + #52]), v4 ([sp + #56])
      0x00005fe4:               8B44241C    	       mov eax, [esp + 28]
      0x00005fe8:                   8500    	       test eax, [eax]
      suspend point dex PC: 0x0005
      GC map objects:  v0 ([sp + #28]), v3 ([sp + #52]), v4 ([sp + #56])
      0x00005fea:               89442418    	       mov [esp + 24], eax
      0x00005fee:               8B4C2418    	       mov ecx, [esp + 24]
      0x00005ff2:                 8B0424    	       mov eax, [esp]
      0x00005ff5:                 8B4004    	       mov eax, [eax + 4]
      0x00005ff8:           8B80C4000000    	       mov eax, [eax + 196]
      0x00005ffe:                 FF5024    	       call [eax + 36]
      suspend point dex PC: 0x0005
      GC map objects:  v0 ([sp + #28]), v3 ([sp + #52]), v4 ([sp + #56])
      0x00006001:               89442420    	       mov [esp + 32], eax
      0x00006005:               8B442420    	       mov eax, [esp + 32]
      0x00006009:             BA00000000    	       mov edx, 0
      0x0000600e:                   33C9    	       xor ecx, ecx
      0x00006010:                   3BC2    	       cmp eax, edx
      0x00006012:                 0F94C1    	       setz/eq ecx
      0x00006015:                   89C8    	       mov eax, ecx
      0x00006017:           0F849B000000    	       jz/eq +155 (0x000060b8)
      0x0000601d:                 8B0424    	       mov eax, [esp]
      0x00006020:                   8B00    	       mov eax, [eax]
      0x00006022:                 8B4014    	       mov eax, [eax + 20]
      0x00006025:           8B8094020000    	       mov eax, [eax + 660]
      0x0000602b:                   85C0    	       test eax, eax
      0x0000602d:           0F8495000000    	       jz/eq +149 (0x000060c8)
      0x00006033:               89442420    	       mov [esp + 32], eax
      0x00006037:                 8B0424    	       mov eax, [esp]
      0x0000603a:                   8B00    	       mov eax, [eax]
      0x0000603c:                 8B4014    	       mov eax, [eax + 20]
      0x0000603f:           8B8088020000    	       mov eax, [eax + 648]
      0x00006045:                   85C0    	       test eax, eax
      0x00006047:           0F848C000000    	       jz/eq +140 (0x000060d9)
      0x0000604d:               89442424    	       mov [esp + 36], eax
      0x00006051:                 8B0424    	       mov eax, [esp]
      0x00006054:                 8B4008    	       mov eax, [eax + 8]
      0x00006057:                 8B4028    	       mov eax, [eax + 40]
      0x0000605a:                   85C0    	       test eax, eax
      0x0000605c:           0F8488000000    	       jz/eq +136 (0x000060ea)
      0x00006062:         83B8840000000A    	       cmp [eax + 132], 10
      0x00006069:           0F8C8C000000    	       jl/nge +140 (0x000060fb)
      0x0000606f:               8B4C2420    	       mov ecx, [esp + 32]
      0x00006073:               8B542424    	       mov edx, [esp + 36]
      0x00006077:                 8B0424    	       mov eax, [esp]
      0x0000607a:                 8B4004    	       mov eax, [eax + 4]
      0x0000607d:                 8B402C    	       mov eax, [eax + 44]
      0x00006080:                 FF5024    	       call [eax + 36]
      suspend point dex PC: 0x000f
      GC map objects:  v0 ([sp + #28]), v1 ([sp + #32]), v2 ([sp + #36]), v3 ([sp + #52]), v4 ([sp + #56])
      0x00006083:                 8B0424    	       mov eax, [esp]
      0x00006086:                 8B4008    	       mov eax, [eax + 8]
      0x00006089:                 8B4074    	       mov eax, [eax + 116]
      0x0000608c:                   85C0    	       test eax, eax
      0x0000608e:           0F8478000000    	       jz/eq +120 (0x0000610c)
      0x00006094:         83B8840000000A    	       cmp [eax + 132], 10
      0x0000609b:           0F8C7C000000    	       jl/nge +124 (0x0000611d)
      0x000060a1:               8B4C2434    	       mov ecx, [esp + 52]
      0x000060a5:               8B542438    	       mov edx, [esp + 56]
      0x000060a9:                 8B0424    	       mov eax, [esp]
      0x000060ac:                 8B4004    	       mov eax, [eax + 4]
      0x000060af:           8B809C000000    	       mov eax, [eax + 156]
      0x000060b5:                 FF5024    	       call [eax + 36]
      suspend point dex PC: 0x0012
      GC map objects:  v0 ([sp + #28]), v1 ([sp + #32]), v2 ([sp + #36]), v3 ([sp + #52]), v4 ([sp + #56])
      0x000060b8:                 83C42C    	       add esp, 44
      0x000060bb:                     C3    	       ret 
      0x000060bc:         64FF155C020000    	       call fs:[0x25c]  ; pTestSuspend
      suspend point dex PC: 0x0000
      GC map objects:  v3 ([sp + #52]), v4 ([sp + #56])
      0x000060c3:             E9E8FEFFFF    	       jmp -280 (0x00005fb0)
      0x000060c8:             B8A2000000    	       mov eax, 162
      0x000060cd:         64FF154C010000    	       call fs:[0x14c]  ; pResolveString
      suspend point dex PC: 0x000b
      GC map objects:  v0 ([sp + #28]), v3 ([sp + #52]), v4 ([sp + #56])
      0x000060d4:             E95AFFFFFF    	       jmp -166 (0x00006033)
      0x000060d9:             B89F000000    	       mov eax, 159
      0x000060de:         64FF154C010000    	       call fs:[0x14c]  ; pResolveString
      suspend point dex PC: 0x000d
      GC map objects:  v0 ([sp + #28]), v1 ([sp + #32]), v3 ([sp + #52]), v4 ([sp + #56])
      0x000060e5:             E963FFFFFF    	       jmp -157 (0x0000604d)
      0x000060ea:             B807000000    	       mov eax, 7
      0x000060ef:         64FF1548010000    	       call fs:[0x148]  ; pInitializeType
      suspend point dex PC: 0x000f
      GC map objects:  v0 ([sp + #28]), v1 ([sp + #32]), v2 ([sp + #36]), v3 ([sp + #52]), v4 ([sp + #56])
      0x000060f6:             E967FFFFFF    	       jmp -153 (0x00006062)
      0x000060fb:             B807000000    	       mov eax, 7
      0x00006100:         64FF1540010000    	       call fs:[0x140]  ; pInitializeStaticStorage
      suspend point dex PC: 0x000f
      GC map objects:  v0 ([sp + #28]), v1 ([sp + #32]), v2 ([sp + #36]), v3 ([sp + #52]), v4 ([sp + #56])
      0x00006107:             E963FFFFFF    	       jmp -157 (0x0000606f)
      0x0000610c:             B81A000000    	       mov eax, 26
      0x00006111:         64FF1548010000    	       call fs:[0x148]  ; pInitializeType
      suspend point dex PC: 0x0012
      GC map objects:  v0 ([sp + #28]), v1 ([sp + #32]), v2 ([sp + #36]), v3 ([sp + #52]), v4 ([sp + #56])
      0x00006118:             E977FFFFFF    	       jmp -137 (0x00006094)
      0x0000611d:             B81A000000    	       mov eax, 26
      0x00006122:         64FF1540010000    	       call fs:[0x140]  ; pInitializeStaticStorage
      suspend point dex PC: 0x0012
      GC map objects:  v0 ([sp + #28]), v1 ([sp + #32]), v2 ([sp + #36]), v3 ([sp + #52]), v4 ([sp + #56])
      0x00006129:             E973FFFFFF    	       jmp -141 (0x000060a1)
17: Lcom/ljj/patch/util/ReflectionUtils; (offset=0x00002e2c) (type_idx=28) (StatusInitialized) (OatClassAllCompiled)
  0: void com.ljj.patch.util.ReflectionUtils.<init>() (dex_method_idx=40)
    DEX CODE:
      0x0000: 7010 3f00 0000           	| invoke-direct {v0}, void java.lang.Object.<init>() // method@63
      0x0003: 0e00                     	| return-void
    OatMethodOffsets (offset=0x00002e30)
      code_offset: 0x0000614c 
      gc_map: (offset=0x00002e3c)
    OatQuickMethodHeader (offset=0x00006130)
      mapping_table: (offset=0x000031e0)
      vmap_table: (offset=0x00003438)
      v65535/r8
    QuickMethodFrameInfo
      frame_size_in_bytes: 32
      core_spill_mask: 0x00000100 (r8)
      fp_spill_mask: 0x00000000 
      vr_stack_locations:
      	ins: v0[sp + #36]
      	method*: v1[sp + #0]
      	outs: v0[sp + #4]
    CODE: (code_offset=0x0000614c size_offset=0x00006148 size=74)...
      0x0000614c:         85842400E0FFFF    	       test eax, [esp + -8192]
      suspend point dex PC: 0x0000
      GC map objects:  v0 ([sp + #36])
      0x00006153:                 83EC1C    	       sub esp, 28
      0x00006156:                 890424    	       mov [esp], eax
      0x00006159:               894C2424    	       mov [esp + 36], ecx
      0x0000615d:     6466833D0000000000    	       cmpw fs:[0x0], 0  ; state_and_flags
      0x00006166:           0F8521000000    	       jnz/ne +33 (0x0000618d)
      0x0000616c:               8B442424    	       mov eax, [esp + 36]
      0x00006170:                   8500    	       test eax, [eax]
      suspend point dex PC: 0x0000
      GC map objects:  v0 ([sp + #36])
      0x00006172:               89442414    	       mov [esp + 20], eax
      0x00006176:               8B4C2414    	       mov ecx, [esp + 20]
      0x0000617a:                 8B0424    	       mov eax, [esp]
      0x0000617d:                 8B4004    	       mov eax, [eax + 4]
      0x00006180:           8B8008010000    	       mov eax, [eax + 264]
      0x00006186:                 FF5024    	       call [eax + 36]
      suspend point dex PC: 0x0000
      GC map objects:  v0 ([sp + #36])
      0x00006189:                 83C41C    	       add esp, 28
      0x0000618c:                     C3    	       ret 
      0x0000618d:         64FF155C020000    	       call fs:[0x25c]  ; pTestSuspend
      suspend point dex PC: 0x0000
      GC map objects:  v0 ([sp + #36])
      0x00006194:                   EBD6    	       jmp -42 (0x0000616c)
  1: java.lang.Object com.ljj.patch.util.ReflectionUtils.getField(java.lang.Class, java.lang.Object, java.lang.String) (dex_method_idx=41)
    DEX CODE:
      0x0000: 6e20 3b00 4200           	| invoke-virtual {v2, v4}, java.lang.reflect.Field java.lang.Class.getDeclaredField(java.lang.String) // method@59
      0x0003: 0c00                     	| move-result-object v0
      0x0004: 1211                     	| const/4 v1, #+1
      0x0005: 6e20 4b00 1000           	| invoke-virtual {v0, v1}, void java.lang.reflect.Field.setAccessible(boolean) // method@75
      0x0008: 6e20 4900 3000           	| invoke-virtual {v0, v3}, java.lang.Object java.lang.reflect.Field.get(java.lang.Object) // method@73
      0x000b: 0c01                     	| move-result-object v1
      0x000c: 1101                     	| return-object v1
    OatMethodOffsets (offset=0x00002e34)
      code_offset: 0x000061bc 
      gc_map: (offset=0x000031b8)
    OatQuickMethodHeader (offset=0x000061a0)
      mapping_table: (offset=0x00003410)
      vmap_table: (offset=0x00003438)
      v65535/r8
    QuickMethodFrameInfo
      frame_size_in_bytes: 32
      core_spill_mask: 0x00000100 (r8)
      fp_spill_mask: 0x00000000 
      vr_stack_locations:
      	locals: v0[sp + #16] v1[sp + #20]
      	ins: v2[sp + #36] v3[sp + #40] v4[sp + #44]
      	method*: v5[sp + #0]
      	outs: v0[sp + #4] v1[sp + #8]
    CODE: (code_offset=0x000061bc size_offset=0x000061b8 size=168)...
      0x000061bc:         85842400E0FFFF    	       test eax, [esp + -8192]
      suspend point dex PC: 0x0000
      GC map objects:  v2 ([sp + #36]), v3 ([sp + #40]), v4 ([sp + #44])
      0x000061c3:                 83EC1C    	       sub esp, 28
      0x000061c6:                 890424    	       mov [esp], eax
      0x000061c9:               894C2424    	       mov [esp + 36], ecx
      0x000061cd:               89542428    	       mov [esp + 40], edx
      0x000061d1:               895C242C    	       mov [esp + 44], ebx
      0x000061d5:     6466833D0000000000    	       cmpw fs:[0x0], 0  ; state_and_flags
      0x000061de:           0F8577000000    	       jnz/ne +119 (0x0000625b)
      0x000061e4:               8B442424    	       mov eax, [esp + 36]
      0x000061e8:                   8500    	       test eax, [eax]
      suspend point dex PC: 0x0000
      GC map objects:  v2 ([sp + #36]), v3 ([sp + #40]), v4 ([sp + #44])
      0x000061ea:               8944240C    	       mov [esp + 12], eax
      0x000061ee:               8B4C240C    	       mov ecx, [esp + 12]
      0x000061f2:               8B54242C    	       mov edx, [esp + 44]
      0x000061f6:                 8B0424    	       mov eax, [esp]
      0x000061f9:                 8B4004    	       mov eax, [eax + 4]
      0x000061fc:           8B80F8000000    	       mov eax, [eax + 248]
      0x00006202:                 FF5024    	       call [eax + 36]
      suspend point dex PC: 0x0000
      GC map objects:  v2 ([sp + #36]), v3 ([sp + #40]), v4 ([sp + #44])
      0x00006205:               89442410    	       mov [esp + 16], eax
      0x00006209:       C744241401000000    	       mov [esp + 20], 1
      0x00006211:               8B442410    	       mov eax, [esp + 16]
      0x00006215:                   8500    	       test eax, [eax]
      suspend point dex PC: 0x0005
      GC map objects:  v0 ([sp + #16]), v2 ([sp + #36]), v3 ([sp + #40]), v4 ([sp + #44])
      0x00006217:               8944240C    	       mov [esp + 12], eax
      0x0000621b:               8B4C240C    	       mov ecx, [esp + 12]
      0x0000621f:               8B542414    	       mov edx, [esp + 20]
      0x00006223:                   8B01    	       mov eax, [ecx]
      0x00006225:           8B80CC010000    	       mov eax, [eax + 460]
      0x0000622b:                 FF5024    	       call [eax + 36]
      suspend point dex PC: 0x0005
      GC map objects:  v0 ([sp + #16]), v2 ([sp + #36]), v3 ([sp + #40]), v4 ([sp + #44])
      0x0000622e:               8B442410    	       mov eax, [esp + 16]
      0x00006232:                   8500    	       test eax, [eax]
      suspend point dex PC: 0x0008
      GC map objects:  v0 ([sp + #16]), v2 ([sp + #36]), v3 ([sp + #40]), v4 ([sp + #44])
      0x00006234:               8944240C    	       mov [esp + 12], eax
      0x00006238:               8B4C240C    	       mov ecx, [esp + 12]
      0x0000623c:               8B542428    	       mov edx, [esp + 40]
      0x00006240:                 8B0424    	       mov eax, [esp]
      0x00006243:                 8B4004    	       mov eax, [eax + 4]
      0x00006246:           8B8030010000    	       mov eax, [eax + 304]
      0x0000624c:                 FF5024    	       call [eax + 36]
      suspend point dex PC: 0x0008
      GC map objects:  v0 ([sp + #16]), v2 ([sp + #36]), v3 ([sp + #40]), v4 ([sp + #44])
      0x0000624f:               89442414    	       mov [esp + 20], eax
      0x00006253:               8B442414    	       mov eax, [esp + 20]
      0x00006257:                 83C41C    	       add esp, 28
      0x0000625a:                     C3    	       ret 
      0x0000625b:         64FF155C020000    	       call fs:[0x25c]  ; pTestSuspend
      suspend point dex PC: 0x0000
      GC map objects:  v2 ([sp + #36]), v3 ([sp + #40]), v4 ([sp + #44])
      0x00006262:                   EB80    	       jmp -128 (0x000061e4)
  2: void com.ljj.patch.util.ReflectionUtils.setFeild(java.lang.Class, java.lang.Object, java.lang.String, java.lang.Object) (dex_method_idx=42)
    DEX CODE:
      0x0000: 6e20 3b00 4200           	| invoke-virtual {v2, v4}, java.lang.reflect.Field java.lang.Class.getDeclaredField(java.lang.String) // method@59
      0x0003: 0c00                     	| move-result-object v0
      0x0004: 1211                     	| const/4 v1, #+1
      0x0005: 6e20 4b00 1000           	| invoke-virtual {v0, v1}, void java.lang.reflect.Field.setAccessible(boolean) // method@75
      0x0008: 6e30 4a00 3005           	| invoke-virtual {v0, v3, v5}, void java.lang.reflect.Field.set(java.lang.Object, java.lang.Object) // method@74
      0x000b: 0e00                     	| return-void
    OatMethodOffsets (offset=0x00002e38)
      code_offset: 0x0000628c 
      gc_map: (offset=0x000031cc)
    OatQuickMethodHeader (offset=0x00006270)
      mapping_table: (offset=0x00003424)
      vmap_table: (offset=0x00003438)
      v65535/r8
    QuickMethodFrameInfo
      frame_size_in_bytes: 48
      core_spill_mask: 0x00000100 (r8)
      fp_spill_mask: 0x00000000 
      vr_stack_locations:
      	locals: v0[sp + #32] v1[sp + #36]
      	ins: v2[sp + #52] v3[sp + #56] v4[sp + #60] v5[sp + #64]
      	method*: v6[sp + #0]
      	outs: v0[sp + #4] v1[sp + #8] v2[sp + #12]
    CODE: (code_offset=0x0000628c size_offset=0x00006288 size=164)...
      0x0000628c:         85842400E0FFFF    	       test eax, [esp + -8192]
      suspend point dex PC: 0x0000
      GC map objects:  v2 ([sp + #52]), v3 ([sp + #56]), v4 ([sp + #60]), v5 ([sp + #64])
      0x00006293:                 83EC2C    	       sub esp, 44
      0x00006296:                 890424    	       mov [esp], eax
      0x00006299:               894C2434    	       mov [esp + 52], ecx
      0x0000629d:               89542438    	       mov [esp + 56], edx
      0x000062a1:               895C243C    	       mov [esp + 60], ebx
      0x000062a5:     6466833D0000000000    	       cmpw fs:[0x0], 0  ; state_and_flags
      0x000062ae:           0F8573000000    	       jnz/ne +115 (0x00006327)
      0x000062b4:               8B442434    	       mov eax, [esp + 52]
      0x000062b8:                   8500    	       test eax, [eax]
      suspend point dex PC: 0x0000
      GC map objects:  v2 ([sp + #52]), v3 ([sp + #56]), v4 ([sp + #60]), v5 ([sp + #64])
      0x000062ba:               8944241C    	       mov [esp + 28], eax
      0x000062be:               8B4C241C    	       mov ecx, [esp + 28]
      0x000062c2:               8B54243C    	       mov edx, [esp + 60]
      0x000062c6:                 8B0424    	       mov eax, [esp]
      0x000062c9:                 8B4004    	       mov eax, [eax + 4]
      0x000062cc:           8B80F8000000    	       mov eax, [eax + 248]
      0x000062d2:                 FF5024    	       call [eax + 36]
      suspend point dex PC: 0x0000
      GC map objects:  v2 ([sp + #52]), v3 ([sp + #56]), v4 ([sp + #60]), v5 ([sp + #64])
      0x000062d5:               89442420    	       mov [esp + 32], eax
      0x000062d9:       C744242401000000    	       mov [esp + 36], 1
      0x000062e1:               8B442420    	       mov eax, [esp + 32]
      0x000062e5:                   8500    	       test eax, [eax]
      suspend point dex PC: 0x0005
      GC map objects:  v0 ([sp + #32]), v2 ([sp + #52]), v3 ([sp + #56]), v4 ([sp + #60]), v5 ([sp + #64])
      0x000062e7:               8944241C    	       mov [esp + 28], eax
      0x000062eb:               8B4C241C    	       mov ecx, [esp + 28]
      0x000062ef:               8B542424    	       mov edx, [esp + 36]
      0x000062f3:                   8B01    	       mov eax, [ecx]
      0x000062f5:           8B80CC010000    	       mov eax, [eax + 460]
      0x000062fb:                 FF5024    	       call [eax + 36]
      suspend point dex PC: 0x0005
      GC map objects:  v0 ([sp + #32]), v2 ([sp + #52]), v3 ([sp + #56]), v4 ([sp + #60]), v5 ([sp + #64])
      0x000062fe:               8B442420    	       mov eax, [esp + 32]
      0x00006302:                   8500    	       test eax, [eax]
      suspend point dex PC: 0x0008
      GC map objects:  v0 ([sp + #32]), v2 ([sp + #52]), v3 ([sp + #56]), v4 ([sp + #60]), v5 ([sp + #64])
      0x00006304:               8944241C    	       mov [esp + 28], eax
      0x00006308:               8B4C241C    	       mov ecx, [esp + 28]
      0x0000630c:               8B542438    	       mov edx, [esp + 56]
      0x00006310:               8B5C2440    	       mov ebx, [esp + 64]
      0x00006314:                 8B0424    	       mov eax, [esp]
      0x00006317:                 8B4004    	       mov eax, [eax + 4]
      0x0000631a:           8B8034010000    	       mov eax, [eax + 308]
      0x00006320:                 FF5024    	       call [eax + 36]
      suspend point dex PC: 0x0008
      GC map objects:  v0 ([sp + #32]), v2 ([sp + #52]), v3 ([sp + #56]), v4 ([sp + #60]), v5 ([sp + #64])
      0x00006323:                 83C42C    	       add esp, 44
      0x00006326:                     C3    	       ret 
      0x00006327:         64FF155C020000    	       call fs:[0x25c]  ; pTestSuspend
      suspend point dex PC: 0x0000
      GC map objects:  v2 ([sp + #52]), v3 ([sp + #56]), v4 ([sp + #60]), v5 ([sp + #64])
      0x0000632e:                   EB84    	       jmp -124 (0x000062b4)
