MAGIC:
oat
064

CHECKSUM:
0xfa069900

INSTRUCTION SET:
X86

INSTRUCTION SET FEATURES:
smp,-ssse3,-sse4.1,-sse4.2,-avx,-avx2

DEX FILE COUNT:
1

EXECUTABLE OFFSET:
0x00004000

INTERPRETER TO INTERPRETER BRIDGE OFFSET:
0x00000000

INTERPRETER TO COMPILED CODE BRIDGE OFFSET:
0x00000000

JNI DLSYM LOOKUP OFFSET:
0x00000000

QUICK GENERIC JNI TRAMPOLINE OFFSET:
0x00000000

QUICK IMT CONFLICT TRAMPOLINE OFFSET:
0x00000000

QUICK RESOLUTION TRAMPOLINE OFFSET:
0x00000000

QUICK TO INTERPRETER BRIDGE OFFSET:
0x00000000

IMAGE PATCH DELTA:
7200768 (0x006de000)

IMAGE FILE LOCATION OAT CHECKSUM:
0xbc44bb0b

IMAGE FILE LOCATION OAT BEGIN:
0x710b9000

KEY VALUE STORE:
classpath = 
debuggable = true
dex2oat-cmdline = --zip-fd=5 --zip-location=base.apk --oat-fd=6 --oat-location=/data/app/vmdl1290667670.tmp/oat/x86/base.odex --instruction-set=x86 --instruction-set-variant=x86 --instruction-set-features=default --runtime-arg -Xms64m --runtime-arg -Xmx512m --swap-fd=7 --debuggable
dex2oat-host = X86
image-location = /data/dalvik-cache/x86/system@framework@boot.art
pic = true

SIZE:
25200

OatDexFile:
location: base.apk
checksum: 0x3ad315b9
0: Lcom/ljj/fixtest/BuildConfig; (offset=0x00002cac) (type_idx=10) (StatusVerified) (OatClassSomeCompiled)
  0: void com.ljj.fixtest.BuildConfig.<clinit>() (dex_method_idx=10)
    DEX CODE:
      0x0000: 1a00 c600                	| const-string v0, "true" // string@198
      0x0002: 7110 3500 0000           	| invoke-static {v0}, boolean java.lang.Boolean.parseBoolean(java.lang.String) // method@53
      0x0005: 0a00                     	| move-result v0
      0x0006: 6a00 0200                	| sput-boolean v0, Z com.ljj.fixtest.BuildConfig.DEBUG // field@2
      0x0008: 7300                     	| return-void-no-barrier
    OatMethodOffsets (offset=0x00000000)
      code_offset: 0x00000000 
      gc_map: (offset=0x00000000)
    OatQuickMethodHeader (offset=0x00000000)
      mapping_table: (offset=0x00000000)
      vmap_table: (offset=0x00000000)
    QuickMethodFrameInfo
      frame_size_in_bytes: 0
      core_spill_mask: 0x00000000 
      fp_spill_mask: 0x00000000 
      vr_stack_locations:
      	locals: v0[sp + #4294967288]
      	method*: v1[sp + #0]
      	outs: v0[sp + #4]
    CODE: (code_offset=0x00000000 size_offset=0x00000000 size=0)
      NO CODE!
  1: void com.ljj.fixtest.BuildConfig.<init>() (dex_method_idx=11)
    DEX CODE:
      0x0000: 7010 3d00 0000           	| invoke-direct {v0}, void java.lang.Object.<init>() // method@61
      0x0003: 0e00                     	| return-void
    OatMethodOffsets (offset=0x00002cb8)
      code_offset: 0x0000401c 
      gc_map: (offset=0x00002d70)
    OatQuickMethodHeader (offset=0x00004000)
      mapping_table: (offset=0x000030ec)
      vmap_table: (offset=0x00003320)
      v65535/r8
    QuickMethodFrameInfo
      frame_size_in_bytes: 32
      core_spill_mask: 0x00000100 (r8)
      fp_spill_mask: 0x00000000 
      vr_stack_locations:
      	ins: v0[sp + #36]
      	method*: v1[sp + #0]
      	outs: v0[sp + #4]
    CODE: (code_offset=0x0000401c size_offset=0x00004018 size=74)...
      0x0000401c:         85842400E0FFFF    	       test eax, [esp + -8192]
      suspend point dex PC: 0x0000
      GC map objects:  v0 ([sp + #36])
      0x00004023:                 83EC1C    	       sub esp, 28
      0x00004026:                 890424    	       mov [esp], eax
      0x00004029:               894C2424    	       mov [esp + 36], ecx
      0x0000402d:     6466833D0000000000    	       cmpw fs:[0x0], 0  ; state_and_flags
      0x00004036:           0F8521000000    	       jnz/ne +33 (0x0000405d)
      0x0000403c:               8B442424    	       mov eax, [esp + 36]
      0x00004040:                   8500    	       test eax, [eax]
      suspend point dex PC: 0x0000
      GC map objects:  v0 ([sp + #36])
      0x00004042:               89442414    	       mov [esp + 20], eax
      0x00004046:               8B4C2414    	       mov ecx, [esp + 20]
      0x0000404a:                 8B0424    	       mov eax, [esp]
      0x0000404d:                 8B4004    	       mov eax, [eax + 4]
      0x00004050:           8B8000010000    	       mov eax, [eax + 256]
      0x00004056:                 FF5024    	       call [eax + 36]
      suspend point dex PC: 0x0000
      GC map objects:  v0 ([sp + #36])
      0x00004059:                 83C41C    	       add esp, 28
      0x0000405c:                     C3    	       ret 
      0x0000405d:         64FF155C020000    	       call fs:[0x25c]  ; pTestSuspend
      suspend point dex PC: 0x0000
      GC map objects:  v0 ([sp + #36])
      0x00004064:                   EBD6    	       jmp -42 (0x0000403c)
1: Lcom/ljj/fixtest/MainActivity; (offset=0x00002cbc) (type_idx=11) (StatusVerified) (OatClassAllCompiled)
  0: void com.ljj.fixtest.MainActivity.<init>() (dex_method_idx=12)
    DEX CODE:
      0x0000: 7010 0000 0000           	| invoke-direct {v0}, void android.app.Activity.<init>() // method@0
      0x0003: 0e00                     	| return-void
    OatMethodOffsets (offset=0x00002cc0)
      code_offset: 0x0000408c 
      gc_map: (offset=0x00002d7c)
    OatQuickMethodHeader (offset=0x00004070)
      mapping_table: (offset=0x000030f8)
      vmap_table: (offset=0x00003320)
      v65535/r8
    QuickMethodFrameInfo
      frame_size_in_bytes: 32
      core_spill_mask: 0x00000100 (r8)
      fp_spill_mask: 0x00000000 
      vr_stack_locations:
      	ins: v0[sp + #36]
      	method*: v1[sp + #0]
      	outs: v0[sp + #4]
    CODE: (code_offset=0x0000408c size_offset=0x00004088 size=71)...
      0x0000408c:         85842400E0FFFF    	       test eax, [esp + -8192]
      suspend point dex PC: 0x0000
      GC map objects:  v0 ([sp + #36])
      0x00004093:                 83EC1C    	       sub esp, 28
      0x00004096:                 890424    	       mov [esp], eax
      0x00004099:               894C2424    	       mov [esp + 36], ecx
      0x0000409d:     6466833D0000000000    	       cmpw fs:[0x0], 0  ; state_and_flags
      0x000040a6:           0F851E000000    	       jnz/ne +30 (0x000040ca)
      0x000040ac:               8B442424    	       mov eax, [esp + 36]
      0x000040b0:                   8500    	       test eax, [eax]
      suspend point dex PC: 0x0000
      GC map objects:  v0 ([sp + #36])
      0x000040b2:               89442414    	       mov [esp + 20], eax
      0x000040b6:               8B4C2414    	       mov ecx, [esp + 20]
      0x000040ba:                 8B0424    	       mov eax, [esp]
      0x000040bd:                 8B4004    	       mov eax, [eax + 4]
      0x000040c0:                 8B400C    	       mov eax, [eax + 12]
      0x000040c3:                 FF5024    	       call [eax + 36]
      suspend point dex PC: 0x0000
      GC map objects:  v0 ([sp + #36])
      0x000040c6:                 83C41C    	       add esp, 28
      0x000040c9:                     C3    	       ret 
      0x000040ca:         64FF155C020000    	       call fs:[0x25c]  ; pTestSuspend
      suspend point dex PC: 0x0000
      GC map objects:  v0 ([sp + #36])
      0x000040d1:                   EBD9    	       jmp -39 (0x000040ac)
  1: void com.ljj.fixtest.MainActivity.onCreate(android.os.Bundle) (dex_method_idx=14)
    DEX CODE:
      0x0000: 6f20 0100 3200           	| invoke-super {v2, v3}, void android.app.Activity.onCreate(android.os.Bundle) // method@1
      0x0003: 1501 037f                	| const/high16 v1, #int +2130903040 // 0x7f030000
      0x0005: 6e20 0f00 1200           	| invoke-virtual {v2, v1}, void com.ljj.fixtest.MainActivity.setContentView(int) // method@15
      0x0008: 1501 067f                	| const/high16 v1, #int +2131099648 // 0x7f060000
      0x000a: 6e20 0d00 1200           	| invoke-virtual {v2, v1}, android.view.View com.ljj.fixtest.MainActivity.findViewById(int) // method@13
      0x000d: 0c00                     	| move-result-object v0
      0x000e: 1f00 0900                	| check-cast v0, android.widget.TextView // type@9
      0x0010: 2201 1400                	| new-instance v1, com.ljj.fixtest.Test // type@20
      0x0012: 7010 1900 0100           	| invoke-direct {v1}, void com.ljj.fixtest.Test.<init>() // method@25
      0x0015: 6e10 1b00 0100           	| invoke-virtual {v1}, java.lang.String com.ljj.fixtest.Test.showText() // method@27
      0x0018: 0c01                     	| move-result-object v1
      0x0019: 6e20 0900 1000           	| invoke-virtual {v0, v1}, void android.widget.TextView.setText(java.lang.CharSequence) // method@9
      0x001c: 0e00                     	| return-void
    OatMethodOffsets (offset=0x00002cc4)
      code_offset: 0x000040fc 
      gc_map: (offset=0x00002d88)
    OatQuickMethodHeader (offset=0x000040e0)
      mapping_table: (offset=0x00003104)
      vmap_table: (offset=0x00003320)
      v65535/r8
    QuickMethodFrameInfo
      frame_size_in_bytes: 32
      core_spill_mask: 0x00000100 (r8)
      fp_spill_mask: 0x00000000 
      vr_stack_locations:
      	locals: v0[sp + #16] v1[sp + #20]
      	ins: v2[sp + #36] v3[sp + #40]
      	method*: v4[sp + #0]
      	outs: v0[sp + #4] v1[sp + #8]
    CODE: (code_offset=0x000040fc size_offset=0x000040f8 size=345)...
      0x000040fc:         85842400E0FFFF    	       test eax, [esp + -8192]
      suspend point dex PC: 0x0000
      GC map objects:  v2 ([sp + #36]), v3 ([sp + #40])
      0x00004103:                 83EC1C    	       sub esp, 28
      0x00004106:                 890424    	       mov [esp], eax
      0x00004109:               894C2424    	       mov [esp + 36], ecx
      0x0000410d:               89542428    	       mov [esp + 40], edx
      0x00004111:     6466833D0000000000    	       cmpw fs:[0x0], 0  ; state_and_flags
      0x0000411a:           0F8508010000    	       jnz/ne +264 (0x00004228)
      0x00004120:               8B442424    	       mov eax, [esp + 36]
      0x00004124:                   8500    	       test eax, [eax]
      suspend point dex PC: 0x0000
      GC map objects:  v2 ([sp + #36]), v3 ([sp + #40])
      0x00004126:               8944240C    	       mov [esp + 12], eax
      0x0000412a:               8B4C240C    	       mov ecx, [esp + 12]
      0x0000412e:               8B542428    	       mov edx, [esp + 40]
      0x00004132:                 8B0424    	       mov eax, [esp]
      0x00004135:                 8B4004    	       mov eax, [eax + 4]
      0x00004138:                 8B4010    	       mov eax, [eax + 16]
      0x0000413b:                 FF5024    	       call [eax + 36]
      suspend point dex PC: 0x0000
      GC map objects:  v2 ([sp + #36]), v3 ([sp + #40])
      0x0000413e:       C74424140000037F    	       mov [esp + 20], 2130903040
      0x00004146:               8B442424    	       mov eax, [esp + 36]
      0x0000414a:                   8500    	       test eax, [eax]
      suspend point dex PC: 0x0005
      GC map objects:  v2 ([sp + #36]), v3 ([sp + #40])
      0x0000414c:               8944240C    	       mov [esp + 12], eax
      0x00004150:               8B4C240C    	       mov ecx, [esp + 12]
      0x00004154:               8B542414    	       mov edx, [esp + 20]
      0x00004158:                   8B01    	       mov eax, [ecx]
      0x0000415a:           8B80D8060000    	       mov eax, [eax + 1752]
      0x00004160:                 FF5024    	       call [eax + 36]
      suspend point dex PC: 0x0005
      GC map objects:  v2 ([sp + #36]), v3 ([sp + #40])
      0x00004163:       C74424140000067F    	       mov [esp + 20], 2131099648
      0x0000416b:               8B442424    	       mov eax, [esp + 36]
      0x0000416f:                   8500    	       test eax, [eax]
      suspend point dex PC: 0x000a
      GC map objects:  v2 ([sp + #36]), v3 ([sp + #40])
      0x00004171:               8944240C    	       mov [esp + 12], eax
      0x00004175:               8B4C240C    	       mov ecx, [esp + 12]
      0x00004179:               8B542414    	       mov edx, [esp + 20]
      0x0000417d:                   8B01    	       mov eax, [ecx]
      0x0000417f:           8B8024040000    	       mov eax, [eax + 1060]
      0x00004185:                 FF5024    	       call [eax + 36]
      suspend point dex PC: 0x000a
      GC map objects:  v2 ([sp + #36]), v3 ([sp + #40])
      0x00004188:               89442410    	       mov [esp + 16], eax
      0x0000418c:                 8B0424    	       mov eax, [esp]
      0x0000418f:                 8B4008    	       mov eax, [eax + 8]
      0x00004192:                 8B4030    	       mov eax, [eax + 48]
      0x00004195:                   85C0    	       test eax, eax
      0x00004197:           0F8497000000    	       jz/eq +151 (0x00004234)
      0x0000419d:               8944240C    	       mov [esp + 12], eax
      0x000041a1:               8B442410    	       mov eax, [esp + 16]
      0x000041a5:               8B4C240C    	       mov ecx, [esp + 12]
      0x000041a9:                   85C0    	       test eax, eax
      0x000041ab:           0F840A000000    	       jz/eq +10 (0x000041bb)
      0x000041b1:                   8B10    	       mov edx, [eax]
      0x000041b3:                   3BD1    	       cmp edx, ecx
      0x000041b5:           0F858A000000    	       jnz/ne +138 (0x00004245)
      0x000041bb:                 8B0C24    	       mov ecx, [esp]
      0x000041be:             B814000000    	       mov eax, 20
      0x000041c3:         64FF1514010000    	       call fs:[0x114]  ; pAllocObject
      suspend point dex PC: 0x0010
      GC map objects:  v0 ([sp + #16]), v2 ([sp + #36]), v3 ([sp + #40])
      0x000041ca:               89442414    	       mov [esp + 20], eax
      0x000041ce:               8B442414    	       mov eax, [esp + 20]
      0x000041d2:                   8500    	       test eax, [eax]
      suspend point dex PC: 0x0012
      GC map objects:  v0 ([sp + #16]), v1 ([sp + #20]), v2 ([sp + #36]), v3 ([sp + #40])
      0x000041d4:               8944240C    	       mov [esp + 12], eax
      0x000041d8:               8B4C240C    	       mov ecx, [esp + 12]
      0x000041dc:                 8B0424    	       mov eax, [esp]
      0x000041df:                 8B4004    	       mov eax, [eax + 4]
      0x000041e2:                 8B4070    	       mov eax, [eax + 112]
      0x000041e5:                 FF5024    	       call [eax + 36]
      suspend point dex PC: 0x0012
      GC map objects:  v0 ([sp + #16]), v1 ([sp + #20]), v2 ([sp + #36]), v3 ([sp + #40])
      0x000041e8:               8B442414    	       mov eax, [esp + 20]
      0x000041ec:                   8500    	       test eax, [eax]
      suspend point dex PC: 0x0015
      GC map objects:  v0 ([sp + #16]), v1 ([sp + #20]), v2 ([sp + #36]), v3 ([sp + #40])
      0x000041ee:               8944240C    	       mov [esp + 12], eax
      0x000041f2:               8B4C240C    	       mov ecx, [esp + 12]
      0x000041f6:                 8B0424    	       mov eax, [esp]
      0x000041f9:                 8B4004    	       mov eax, [eax + 4]
      0x000041fc:                 8B4078    	       mov eax, [eax + 120]
      0x000041ff:                 FF5024    	       call [eax + 36]
      suspend point dex PC: 0x0015
      GC map objects:  v0 ([sp + #16]), v1 ([sp + #20]), v2 ([sp + #36]), v3 ([sp + #40])
      0x00004202:               89442414    	       mov [esp + 20], eax
      0x00004206:               8B442410    	       mov eax, [esp + 16]
      0x0000420a:                   8500    	       test eax, [eax]
      suspend point dex PC: 0x0019
      GC map objects:  v0 ([sp + #16]), v1 ([sp + #20]), v2 ([sp + #36]), v3 ([sp + #40])
      0x0000420c:               8944240C    	       mov [esp + 12], eax
      0x00004210:               8B4C240C    	       mov ecx, [esp + 12]
      0x00004214:               8B542414    	       mov edx, [esp + 20]
      0x00004218:                 8B0424    	       mov eax, [esp]
      0x0000421b:                 8B4004    	       mov eax, [eax + 4]
      0x0000421e:                 8B4030    	       mov eax, [eax + 48]
      0x00004221:                 FF5024    	       call [eax + 36]
      suspend point dex PC: 0x0019
      GC map objects:  v0 ([sp + #16]), v1 ([sp + #20]), v2 ([sp + #36]), v3 ([sp + #40])
      0x00004224:                 83C41C    	       add esp, 28
      0x00004227:                     C3    	       ret 
      0x00004228:         64FF155C020000    	       call fs:[0x25c]  ; pTestSuspend
      suspend point dex PC: 0x0000
      GC map objects:  v2 ([sp + #36]), v3 ([sp + #40])
      0x0000422f:             E9ECFEFFFF    	       jmp -276 (0x00004120)
      0x00004234:             B809000000    	       mov eax, 9
      0x00004239:         64FF1548010000    	       call fs:[0x148]  ; pInitializeType
      suspend point dex PC: 0x000e
      GC map objects:  v0 ([sp + #16]), v2 ([sp + #36]), v3 ([sp + #40])
      0x00004240:             E958FFFFFF    	       jmp -168 (0x0000419d)
      0x00004245:                   89C8    	       mov eax, ecx
      0x00004247:                   89D1    	       mov ecx, edx
      0x00004249:         64FF153C010000    	       call fs:[0x13c]  ; pCheckCast
      suspend point dex PC: 0x000e
      GC map objects:  v0 ([sp + #16]), v2 ([sp + #36]), v3 ([sp + #40])
      0x00004250:             E966FFFFFF    	       jmp -154 (0x000041bb)
2: Lcom/ljj/fixtest/MyApplication; (offset=0x00002cc8) (type_idx=12) (StatusVerified) (OatClassAllCompiled)
  0: void com.ljj.fixtest.MyApplication.<init>() (dex_method_idx=16)
    DEX CODE:
      0x0000: 7010 0200 0000           	| invoke-direct {v0}, void android.app.Application.<init>() // method@2
      0x0003: 0e00                     	| return-void
    OatMethodOffsets (offset=0x00002ccc)
      code_offset: 0x0000427c 
      gc_map: (offset=0x00002d7c)
    OatQuickMethodHeader (offset=0x00004260)
      mapping_table: (offset=0x000030f8)
      vmap_table: (offset=0x00003320)
      v65535/r8
    QuickMethodFrameInfo
      frame_size_in_bytes: 32
      core_spill_mask: 0x00000100 (r8)
      fp_spill_mask: 0x00000000 
      vr_stack_locations:
      	ins: v0[sp + #36]
      	method*: v1[sp + #0]
      	outs: v0[sp + #4]
    CODE: (code_offset=0x0000427c size_offset=0x00004278 size=71)...
      0x0000427c:         85842400E0FFFF    	       test eax, [esp + -8192]
      suspend point dex PC: 0x0000
      GC map objects:  v0 ([sp + #36])
      0x00004283:                 83EC1C    	       sub esp, 28
      0x00004286:                 890424    	       mov [esp], eax
      0x00004289:               894C2424    	       mov [esp + 36], ecx
      0x0000428d:     6466833D0000000000    	       cmpw fs:[0x0], 0  ; state_and_flags
      0x00004296:           0F851E000000    	       jnz/ne +30 (0x000042ba)
      0x0000429c:               8B442424    	       mov eax, [esp + 36]
      0x000042a0:                   8500    	       test eax, [eax]
      suspend point dex PC: 0x0000
      GC map objects:  v0 ([sp + #36])
      0x000042a2:               89442414    	       mov [esp + 20], eax
      0x000042a6:               8B4C2414    	       mov ecx, [esp + 20]
      0x000042aa:                 8B0424    	       mov eax, [esp]
      0x000042ad:                 8B4004    	       mov eax, [eax + 4]
      0x000042b0:                 8B4014    	       mov eax, [eax + 20]
      0x000042b3:                 FF5024    	       call [eax + 36]
      suspend point dex PC: 0x0000
      GC map objects:  v0 ([sp + #36])
      0x000042b6:                 83C41C    	       add esp, 28
      0x000042b9:                     C3    	       ret 
      0x000042ba:         64FF155C020000    	       call fs:[0x25c]  ; pTestSuspend
      suspend point dex PC: 0x0000
      GC map objects:  v0 ([sp + #36])
      0x000042c1:                   EBD9    	       jmp -39 (0x0000429c)
  1: void com.ljj.fixtest.MyApplication.onCreate() (dex_method_idx=17)
    DEX CODE:
      0x0000: 6f10 0300 0300           	| invoke-super {v3}, void android.app.Application.onCreate() // method@3
      0x0003: 7110 2500 0300           	| invoke-static {v3}, void com.ljj.patch.util.HotFix.init(android.content.Context) // method@37
      0x0006: 2201 2f00                	| new-instance v1, java.lang.StringBuilder // type@47
      0x0008: 7010 3f00 0100           	| invoke-direct {v1}, void java.lang.StringBuilder.<init>() // method@63
      0x000b: 7100 0700 0000           	| invoke-static {}, java.io.File android.os.Environment.getExternalStorageDirectory() // method@7
      0x000e: 0c02                     	| move-result-object v2
      0x000f: 6e10 2e00 0200           	| invoke-virtual {v2}, java.lang.String java.io.File.getAbsolutePath() // method@46
      0x0012: 0c02                     	| move-result-object v2
      0x0013: 6e20 4100 2100           	| invoke-virtual {v1, v2}, java.lang.StringBuilder java.lang.StringBuilder.append(java.lang.String) // method@65
      0x0016: 0c01                     	| move-result-object v1
      0x0017: 6202 1500                	| sget-object  v2, Ljava/lang/String; java.io.File.separator // field@21
      0x0019: 6e20 4100 2100           	| invoke-virtual {v1, v2}, java.lang.StringBuilder java.lang.StringBuilder.append(java.lang.String) // method@65
      0x001c: 0c01                     	| move-result-object v1
      0x001d: 1a02 af00                	| const-string v2, "patch.dex" // string@175
      0x001f: 6e20 4100 2100           	| invoke-virtual {v1, v2}, java.lang.StringBuilder java.lang.StringBuilder.append(java.lang.String) // method@65
      0x0022: 0c01                     	| move-result-object v1
      0x0023: 6e10 4200 0100           	| invoke-virtual {v1}, java.lang.String java.lang.StringBuilder.toString() // method@66
      0x0026: 0c00                     	| move-result-object v0
      0x0027: 7120 2600 0300           	| invoke-static {v3, v0}, void com.ljj.patch.util.HotFix.inject(android.content.Context, java.lang.String) // method@38
      0x002a: 0e00                     	| return-void
    OatMethodOffsets (offset=0x00002cd0)
      code_offset: 0x000042ec 
      gc_map: (offset=0x00002dc0)
    OatQuickMethodHeader (offset=0x000042d0)
      mapping_table: (offset=0x00003128)
      vmap_table: (offset=0x00003320)
      v65535/r8
    QuickMethodFrameInfo
      frame_size_in_bytes: 48
      core_spill_mask: 0x00000100 (r8)
      fp_spill_mask: 0x00000000 
      vr_stack_locations:
      	locals: v0[sp + #28] v1[sp + #32] v2[sp + #36]
      	ins: v3[sp + #52]
      	method*: v4[sp + #0]
      	outs: v0[sp + #4] v1[sp + #8]
    CODE: (code_offset=0x000042ec size_offset=0x000042e8 size=665)...
      0x000042ec:         85842400E0FFFF    	       test eax, [esp + -8192]
      suspend point dex PC: 0x0000
      GC map objects:  v3 ([sp + #52])
      0x000042f3:                 83EC2C    	       sub esp, 44
      0x000042f6:                 890424    	       mov [esp], eax
      0x000042f9:               894C2434    	       mov [esp + 52], ecx
      0x000042fd:     6466833D0000000000    	       cmpw fs:[0x0], 0  ; state_and_flags
      0x00004306:           0F85D4010000    	       jnz/ne +468 (0x000044e0)
      0x0000430c:               8B442434    	       mov eax, [esp + 52]
      0x00004310:                   8500    	       test eax, [eax]
      suspend point dex PC: 0x0000
      GC map objects:  v3 ([sp + #52])
      0x00004312:               89442418    	       mov [esp + 24], eax
      0x00004316:               8B4C2418    	       mov ecx, [esp + 24]
      0x0000431a:                 8B0424    	       mov eax, [esp]
      0x0000431d:                 8B4004    	       mov eax, [eax + 4]
      0x00004320:                 8B4018    	       mov eax, [eax + 24]
      0x00004323:                 FF5024    	       call [eax + 36]
      suspend point dex PC: 0x0000
      GC map objects:  v3 ([sp + #52])
      0x00004326:                 8B0424    	       mov eax, [esp]
      0x00004329:                 8B4008    	       mov eax, [eax + 8]
      0x0000432c:                 8B4074    	       mov eax, [eax + 116]
      0x0000432f:                   85C0    	       test eax, eax
      0x00004331:           0F84B5010000    	       jz/eq +437 (0x000044ec)
      0x00004337:         83B8840000000A    	       cmp [eax + 132], 10
      0x0000433e:           0F8CB9010000    	       jl/nge +441 (0x000044fd)
      0x00004344:               8B4C2434    	       mov ecx, [esp + 52]
      0x00004348:                 8B0424    	       mov eax, [esp]
      0x0000434b:                 8B4004    	       mov eax, [eax + 4]
      0x0000434e:           8B80A0000000    	       mov eax, [eax + 160]
      0x00004354:                 FF5024    	       call [eax + 36]
      suspend point dex PC: 0x0003
      GC map objects:  v3 ([sp + #52])
      0x00004357:                 8B0C24    	       mov ecx, [esp]
      0x0000435a:             B82F000000    	       mov eax, 47
      0x0000435f:         64FF1514010000    	       call fs:[0x114]  ; pAllocObject
      suspend point dex PC: 0x0006
      GC map objects:  v3 ([sp + #52])
      0x00004366:               89442420    	       mov [esp + 32], eax
      0x0000436a:               8B442420    	       mov eax, [esp + 32]
      0x0000436e:                   8500    	       test eax, [eax]
      suspend point dex PC: 0x0008
      GC map objects:  v1 ([sp + #32]), v3 ([sp + #52])
      0x00004370:               89442418    	       mov [esp + 24], eax
      0x00004374:               8B4C2418    	       mov ecx, [esp + 24]
      0x00004378:                 8B0424    	       mov eax, [esp]
      0x0000437b:                 8B4004    	       mov eax, [eax + 4]
      0x0000437e:           8B8008010000    	       mov eax, [eax + 264]
      0x00004384:                 FF5024    	       call [eax + 36]
      suspend point dex PC: 0x0008
      GC map objects:  v1 ([sp + #32]), v3 ([sp + #52])
      0x00004387:                 8B0424    	       mov eax, [esp]
      0x0000438a:                 8B4008    	       mov eax, [eax + 8]
      0x0000438d:                 8B4024    	       mov eax, [eax + 36]
      0x00004390:                   85C0    	       test eax, eax
      0x00004392:           0F8476010000    	       jz/eq +374 (0x0000450e)
      0x00004398:         83B8840000000A    	       cmp [eax + 132], 10
      0x0000439f:           0F8C7A010000    	       jl/nge +378 (0x0000451f)
      0x000043a5:                 8B0424    	       mov eax, [esp]
      0x000043a8:                 8B4004    	       mov eax, [eax + 4]
      0x000043ab:                 8B4028    	       mov eax, [eax + 40]
      0x000043ae:                 FF5024    	       call [eax + 36]
      suspend point dex PC: 0x000b
      GC map objects:  v1 ([sp + #32]), v3 ([sp + #52])
      0x000043b1:               89442424    	       mov [esp + 36], eax
      0x000043b5:               8B442424    	       mov eax, [esp + 36]
      0x000043b9:                   8500    	       test eax, [eax]
      suspend point dex PC: 0x000f
      GC map objects:  v1 ([sp + #32]), v2 ([sp + #36]), v3 ([sp + #52])
      0x000043bb:               89442418    	       mov [esp + 24], eax
      0x000043bf:               8B4C2418    	       mov ecx, [esp + 24]
      0x000043c3:                   8B01    	       mov eax, [ecx]
      0x000043c5:           8B80E0010000    	       mov eax, [eax + 480]
      0x000043cb:                 FF5024    	       call [eax + 36]
      suspend point dex PC: 0x000f
      GC map objects:  v1 ([sp + #32]), v2 ([sp + #36]), v3 ([sp + #52])
      0x000043ce:               89442424    	       mov [esp + 36], eax
      0x000043d2:               8B442420    	       mov eax, [esp + 32]
      0x000043d6:                   8500    	       test eax, [eax]
      suspend point dex PC: 0x0013
      GC map objects:  v1 ([sp + #32]), v2 ([sp + #36]), v3 ([sp + #52])
      0x000043d8:               89442418    	       mov [esp + 24], eax
      0x000043dc:               8B4C2418    	       mov ecx, [esp + 24]
      0x000043e0:               8B542424    	       mov edx, [esp + 36]
      0x000043e4:                 8B0424    	       mov eax, [esp]
      0x000043e7:                 8B4004    	       mov eax, [eax + 4]
      0x000043ea:           8B8010010000    	       mov eax, [eax + 272]
      0x000043f0:                 FF5024    	       call [eax + 36]
      suspend point dex PC: 0x0013
      GC map objects:  v1 ([sp + #32]), v2 ([sp + #36]), v3 ([sp + #52])
      0x000043f3:               89442420    	       mov [esp + 32], eax
      0x000043f7:                 8B0424    	       mov eax, [esp]
      0x000043fa:                 8B4008    	       mov eax, [eax + 8]
      0x000043fd:           8B8094000000    	       mov eax, [eax + 148]
      0x00004403:                   85C0    	       test eax, eax
      0x00004405:           0F8425010000    	       jz/eq +293 (0x00004530)
      0x0000440b:         83B8840000000A    	       cmp [eax + 132], 10
      0x00004412:           0F8C29010000    	       jl/nge +297 (0x00004541)
      0x00004418:           8B886C020000    	       mov ecx, [eax + 620]
      0x0000441e:               894C2424    	       mov [esp + 36], ecx
      0x00004422:               8B442420    	       mov eax, [esp + 32]
      0x00004426:                   8500    	       test eax, [eax]
      suspend point dex PC: 0x0019
      GC map objects:  v1 ([sp + #32]), v2 ([sp + #36]), v3 ([sp + #52])
      0x00004428:               89442418    	       mov [esp + 24], eax
      0x0000442c:               8B4C2418    	       mov ecx, [esp + 24]
      0x00004430:               8B542424    	       mov edx, [esp + 36]
      0x00004434:                 8B0424    	       mov eax, [esp]
      0x00004437:                 8B4004    	       mov eax, [eax + 4]
      0x0000443a:           8B8010010000    	       mov eax, [eax + 272]
      0x00004440:                 FF5024    	       call [eax + 36]
      suspend point dex PC: 0x0019
      GC map objects:  v1 ([sp + #32]), v2 ([sp + #36]), v3 ([sp + #52])
      0x00004443:               89442420    	       mov [esp + 32], eax
      0x00004447:                 8B0424    	       mov eax, [esp]
      0x0000444a:                   8B00    	       mov eax, [eax]
      0x0000444c:                 8B4014    	       mov eax, [eax + 20]
      0x0000444f:           8B80C8020000    	       mov eax, [eax + 712]
      0x00004455:                   85C0    	       test eax, eax
      0x00004457:           0F84F5000000    	       jz/eq +245 (0x00004552)
      0x0000445d:               89442424    	       mov [esp + 36], eax
      0x00004461:               8B442420    	       mov eax, [esp + 32]
      0x00004465:                   8500    	       test eax, [eax]
      suspend point dex PC: 0x001f
      GC map objects:  v1 ([sp + #32]), v2 ([sp + #36]), v3 ([sp + #52])
      0x00004467:               89442418    	       mov [esp + 24], eax
      0x0000446b:               8B4C2418    	       mov ecx, [esp + 24]
      0x0000446f:               8B542424    	       mov edx, [esp + 36]
      0x00004473:                 8B0424    	       mov eax, [esp]
      0x00004476:                 8B4004    	       mov eax, [eax + 4]
      0x00004479:           8B8010010000    	       mov eax, [eax + 272]
      0x0000447f:                 FF5024    	       call [eax + 36]
      suspend point dex PC: 0x001f
      GC map objects:  v1 ([sp + #32]), v2 ([sp + #36]), v3 ([sp + #52])
      0x00004482:               89442420    	       mov [esp + 32], eax
      0x00004486:               8B442420    	       mov eax, [esp + 32]
      0x0000448a:                   8500    	       test eax, [eax]
      suspend point dex PC: 0x0023
      GC map objects:  v1 ([sp + #32]), v2 ([sp + #36]), v3 ([sp + #52])
      0x0000448c:               89442418    	       mov [esp + 24], eax
      0x00004490:               8B4C2418    	       mov ecx, [esp + 24]
      0x00004494:                 8B0424    	       mov eax, [esp]
      0x00004497:                 8B4004    	       mov eax, [eax + 4]
      0x0000449a:           8B8014010000    	       mov eax, [eax + 276]
      0x000044a0:                 FF5024    	       call [eax + 36]
      suspend point dex PC: 0x0023
      GC map objects:  v1 ([sp + #32]), v2 ([sp + #36]), v3 ([sp + #52])
      0x000044a3:               8944241C    	       mov [esp + 28], eax
      0x000044a7:                 8B0424    	       mov eax, [esp]
      0x000044aa:                 8B4008    	       mov eax, [eax + 8]
      0x000044ad:                 8B4074    	       mov eax, [eax + 116]
      0x000044b0:                   85C0    	       test eax, eax
      0x000044b2:           0F84AB000000    	       jz/eq +171 (0x00004563)
      0x000044b8:         83B8840000000A    	       cmp [eax + 132], 10
      0x000044bf:           0F8CAF000000    	       jl/nge +175 (0x00004574)
      0x000044c5:               8B4C2434    	       mov ecx, [esp + 52]
      0x000044c9:               8B54241C    	       mov edx, [esp + 28]
      0x000044cd:                 8B0424    	       mov eax, [esp]
      0x000044d0:                 8B4004    	       mov eax, [eax + 4]
      0x000044d3:           8B80A4000000    	       mov eax, [eax + 164]
      0x000044d9:                 FF5024    	       call [eax + 36]
      suspend point dex PC: 0x0027
      GC map objects:  v0 ([sp + #28]), v1 ([sp + #32]), v2 ([sp + #36]), v3 ([sp + #52])
      0x000044dc:                 83C42C    	       add esp, 44
      0x000044df:                     C3    	       ret 
      0x000044e0:         64FF155C020000    	       call fs:[0x25c]  ; pTestSuspend
      suspend point dex PC: 0x0000
      GC map objects:  v3 ([sp + #52])
      0x000044e7:             E920FEFFFF    	       jmp -480 (0x0000430c)
      0x000044ec:             B81A000000    	       mov eax, 26
      0x000044f1:         64FF1548010000    	       call fs:[0x148]  ; pInitializeType
      suspend point dex PC: 0x0003
      GC map objects:  v3 ([sp + #52])
      0x000044f8:             E93AFEFFFF    	       jmp -454 (0x00004337)
      0x000044fd:             B81A000000    	       mov eax, 26
      0x00004502:         64FF1540010000    	       call fs:[0x140]  ; pInitializeStaticStorage
      suspend point dex PC: 0x0003
      GC map objects:  v3 ([sp + #52])
      0x00004509:             E936FEFFFF    	       jmp -458 (0x00004344)
      0x0000450e:             B806000000    	       mov eax, 6
      0x00004513:         64FF1548010000    	       call fs:[0x148]  ; pInitializeType
      suspend point dex PC: 0x000b
      GC map objects:  v1 ([sp + #32]), v3 ([sp + #52])
      0x0000451a:             E979FEFFFF    	       jmp -391 (0x00004398)
      0x0000451f:             B806000000    	       mov eax, 6
      0x00004524:         64FF1540010000    	       call fs:[0x140]  ; pInitializeStaticStorage
      suspend point dex PC: 0x000b
      GC map objects:  v1 ([sp + #32]), v3 ([sp + #52])
      0x0000452b:             E975FEFFFF    	       jmp -395 (0x000043a5)
      0x00004530:             B822000000    	       mov eax, 34
      0x00004535:         64FF1548010000    	       call fs:[0x148]  ; pInitializeType
      suspend point dex PC: 0x0017
      GC map objects:  v1 ([sp + #32]), v2 ([sp + #36]), v3 ([sp + #52])
      0x0000453c:             E9CAFEFFFF    	       jmp -310 (0x0000440b)
      0x00004541:             B822000000    	       mov eax, 34
      0x00004546:         64FF1540010000    	       call fs:[0x140]  ; pInitializeStaticStorage
      suspend point dex PC: 0x0017
      GC map objects:  v1 ([sp + #32]), v2 ([sp + #36]), v3 ([sp + #52])
      0x0000454d:             E9C6FEFFFF    	       jmp -314 (0x00004418)
      0x00004552:             B8AF000000    	       mov eax, 175
      0x00004557:         64FF154C010000    	       call fs:[0x14c]  ; pResolveString
      suspend point dex PC: 0x001d
      GC map objects:  v1 ([sp + #32]), v2 ([sp + #36]), v3 ([sp + #52])
      0x0000455e:             E9FAFEFFFF    	       jmp -262 (0x0000445d)
      0x00004563:             B81A000000    	       mov eax, 26
      0x00004568:         64FF1548010000    	       call fs:[0x148]  ; pInitializeType
      suspend point dex PC: 0x0027
      GC map objects:  v0 ([sp + #28]), v1 ([sp + #32]), v2 ([sp + #36]), v3 ([sp + #52])
      0x0000456f:             E944FFFFFF    	       jmp -188 (0x000044b8)
      0x00004574:             B81A000000    	       mov eax, 26
      0x00004579:         64FF1540010000    	       call fs:[0x140]  ; pInitializeStaticStorage
      suspend point dex PC: 0x0027
      GC map objects:  v0 ([sp + #28]), v1 ([sp + #32]), v2 ([sp + #36]), v3 ([sp + #52])
      0x00004580:             E940FFFFFF    	       jmp -192 (0x000044c5)
3: Lcom/ljj/fixtest/R$attr; (offset=0x00002cd4) (type_idx=13) (StatusInitialized) (OatClassAllCompiled)
  0: void com.ljj.fixtest.R$attr.<init>() (dex_method_idx=18)
    DEX CODE:
      0x0000: 7010 3d00 0000           	| invoke-direct {v0}, void java.lang.Object.<init>() // method@61
      0x0003: 0e00                     	| return-void
    OatMethodOffsets (offset=0x00002cd8)
      code_offset: 0x000045ac 
      gc_map: (offset=0x00002d70)
    OatQuickMethodHeader (offset=0x00004590)
      mapping_table: (offset=0x000030ec)
      vmap_table: (offset=0x00003320)
      v65535/r8
    QuickMethodFrameInfo
      frame_size_in_bytes: 32
      core_spill_mask: 0x00000100 (r8)
      fp_spill_mask: 0x00000000 
      vr_stack_locations:
      	ins: v0[sp + #36]
      	method*: v1[sp + #0]
      	outs: v0[sp + #4]
    CODE: (code_offset=0x000045ac size_offset=0x000045a8 size=74)...
      0x000045ac:         85842400E0FFFF    	       test eax, [esp + -8192]
      suspend point dex PC: 0x0000
      GC map objects:  v0 ([sp + #36])
      0x000045b3:                 83EC1C    	       sub esp, 28
      0x000045b6:                 890424    	       mov [esp], eax
      0x000045b9:               894C2424    	       mov [esp + 36], ecx
      0x000045bd:     6466833D0000000000    	       cmpw fs:[0x0], 0  ; state_and_flags
      0x000045c6:           0F8521000000    	       jnz/ne +33 (0x000045ed)
      0x000045cc:               8B442424    	       mov eax, [esp + 36]
      0x000045d0:                   8500    	       test eax, [eax]
      suspend point dex PC: 0x0000
      GC map objects:  v0 ([sp + #36])
      0x000045d2:               89442414    	       mov [esp + 20], eax
      0x000045d6:               8B4C2414    	       mov ecx, [esp + 20]
      0x000045da:                 8B0424    	       mov eax, [esp]
      0x000045dd:                 8B4004    	       mov eax, [eax + 4]
      0x000045e0:           8B8000010000    	       mov eax, [eax + 256]
      0x000045e6:                 FF5024    	       call [eax + 36]
      suspend point dex PC: 0x0000
      GC map objects:  v0 ([sp + #36])
      0x000045e9:                 83C41C    	       add esp, 28
      0x000045ec:                     C3    	       ret 
      0x000045ed:         64FF155C020000    	       call fs:[0x25c]  ; pTestSuspend
      suspend point dex PC: 0x0000
      GC map objects:  v0 ([sp + #36])
      0x000045f4:                   EBD6    	       jmp -42 (0x000045cc)
4: Lcom/ljj/fixtest/R$color; (offset=0x00002cdc) (type_idx=14) (StatusVerified) (OatClassAllCompiled)
  0: void com.ljj.fixtest.R$color.<init>() (dex_method_idx=19)
    DEX CODE:
      0x0000: 7010 3d00 0000           	| invoke-direct {v0}, void java.lang.Object.<init>() // method@61
      0x0003: 0e00                     	| return-void
    OatMethodOffsets (offset=0x00002ce0)
      code_offset: 0x0000461c 
      gc_map: (offset=0x00002d70)
    OatQuickMethodHeader (offset=0x00004600)
      mapping_table: (offset=0x000030ec)
      vmap_table: (offset=0x00003320)
      v65535/r8
    QuickMethodFrameInfo
      frame_size_in_bytes: 32
      core_spill_mask: 0x00000100 (r8)
      fp_spill_mask: 0x00000000 
      vr_stack_locations:
      	ins: v0[sp + #36]
      	method*: v1[sp + #0]
      	outs: v0[sp + #4]
    CODE: (code_offset=0x0000461c size_offset=0x00004618 size=74)...
      0x0000461c:         85842400E0FFFF    	       test eax, [esp + -8192]
      suspend point dex PC: 0x0000
      GC map objects:  v0 ([sp + #36])
      0x00004623:                 83EC1C    	       sub esp, 28
      0x00004626:                 890424    	       mov [esp], eax
      0x00004629:               894C2424    	       mov [esp + 36], ecx
      0x0000462d:     6466833D0000000000    	       cmpw fs:[0x0], 0  ; state_and_flags
      0x00004636:           0F8521000000    	       jnz/ne +33 (0x0000465d)
      0x0000463c:               8B442424    	       mov eax, [esp + 36]
      0x00004640:                   8500    	       test eax, [eax]
      suspend point dex PC: 0x0000
      GC map objects:  v0 ([sp + #36])
      0x00004642:               89442414    	       mov [esp + 20], eax
      0x00004646:               8B4C2414    	       mov ecx, [esp + 20]
      0x0000464a:                 8B0424    	       mov eax, [esp]
      0x0000464d:                 8B4004    	       mov eax, [eax + 4]
      0x00004650:           8B8000010000    	       mov eax, [eax + 256]
      0x00004656:                 FF5024    	       call [eax + 36]
      suspend point dex PC: 0x0000
      GC map objects:  v0 ([sp + #36])
      0x00004659:                 83C41C    	       add esp, 28
      0x0000465c:                     C3    	       ret 
      0x0000465d:         64FF155C020000    	       call fs:[0x25c]  ; pTestSuspend
      suspend point dex PC: 0x0000
      GC map objects:  v0 ([sp + #36])
      0x00004664:                   EBD6    	       jmp -42 (0x0000463c)
5: Lcom/ljj/fixtest/R$id; (offset=0x00002ce4) (type_idx=15) (StatusVerified) (OatClassAllCompiled)
  0: void com.ljj.fixtest.R$id.<init>() (dex_method_idx=20)
    DEX CODE:
      0x0000: 7010 3d00 0000           	| invoke-direct {v0}, void java.lang.Object.<init>() // method@61
      0x0003: 0e00                     	| return-void
    OatMethodOffsets (offset=0x00002ce8)
      code_offset: 0x0000468c 
      gc_map: (offset=0x00002d70)
    OatQuickMethodHeader (offset=0x00004670)
      mapping_table: (offset=0x000030ec)
      vmap_table: (offset=0x00003320)
      v65535/r8
    QuickMethodFrameInfo
      frame_size_in_bytes: 32
      core_spill_mask: 0x00000100 (r8)
      fp_spill_mask: 0x00000000 
      vr_stack_locations:
      	ins: v0[sp + #36]
      	method*: v1[sp + #0]
      	outs: v0[sp + #4]
    CODE: (code_offset=0x0000468c size_offset=0x00004688 size=74)...
      0x0000468c:         85842400E0FFFF    	       test eax, [esp + -8192]
      suspend point dex PC: 0x0000
      GC map objects:  v0 ([sp + #36])
      0x00004693:                 83EC1C    	       sub esp, 28
      0x00004696:                 890424    	       mov [esp], eax
      0x00004699:               894C2424    	       mov [esp + 36], ecx
      0x0000469d:     6466833D0000000000    	       cmpw fs:[0x0], 0  ; state_and_flags
      0x000046a6:           0F8521000000    	       jnz/ne +33 (0x000046cd)
      0x000046ac:               8B442424    	       mov eax, [esp + 36]
      0x000046b0:                   8500    	       test eax, [eax]
      suspend point dex PC: 0x0000
      GC map objects:  v0 ([sp + #36])
      0x000046b2:               89442414    	       mov [esp + 20], eax
      0x000046b6:               8B4C2414    	       mov ecx, [esp + 20]
      0x000046ba:                 8B0424    	       mov eax, [esp]
      0x000046bd:                 8B4004    	       mov eax, [eax + 4]
      0x000046c0:           8B8000010000    	       mov eax, [eax + 256]
      0x000046c6:                 FF5024    	       call [eax + 36]
      suspend point dex PC: 0x0000
      GC map objects:  v0 ([sp + #36])
      0x000046c9:                 83C41C    	       add esp, 28
      0x000046cc:                     C3    	       ret 
      0x000046cd:         64FF155C020000    	       call fs:[0x25c]  ; pTestSuspend
      suspend point dex PC: 0x0000
      GC map objects:  v0 ([sp + #36])
      0x000046d4:                   EBD6    	       jmp -42 (0x000046ac)
6: Lcom/ljj/fixtest/R$layout; (offset=0x00002cec) (type_idx=16) (StatusVerified) (OatClassAllCompiled)
  0: void com.ljj.fixtest.R$layout.<init>() (dex_method_idx=21)
    DEX CODE:
      0x0000: 7010 3d00 0000           	| invoke-direct {v0}, void java.lang.Object.<init>() // method@61
      0x0003: 0e00                     	| return-void
    OatMethodOffsets (offset=0x00002cf0)
      code_offset: 0x000046fc 
      gc_map: (offset=0x00002d70)
    OatQuickMethodHeader (offset=0x000046e0)
      mapping_table: (offset=0x000030ec)
      vmap_table: (offset=0x00003320)
      v65535/r8
    QuickMethodFrameInfo
      frame_size_in_bytes: 32
      core_spill_mask: 0x00000100 (r8)
      fp_spill_mask: 0x00000000 
      vr_stack_locations:
      	ins: v0[sp + #36]
      	method*: v1[sp + #0]
      	outs: v0[sp + #4]
    CODE: (code_offset=0x000046fc size_offset=0x000046f8 size=74)...
      0x000046fc:         85842400E0FFFF    	       test eax, [esp + -8192]
      suspend point dex PC: 0x0000
      GC map objects:  v0 ([sp + #36])
      0x00004703:                 83EC1C    	       sub esp, 28
      0x00004706:                 890424    	       mov [esp], eax
      0x00004709:               894C2424    	       mov [esp + 36], ecx
      0x0000470d:     6466833D0000000000    	       cmpw fs:[0x0], 0  ; state_and_flags
      0x00004716:           0F8521000000    	       jnz/ne +33 (0x0000473d)
      0x0000471c:               8B442424    	       mov eax, [esp + 36]
      0x00004720:                   8500    	       test eax, [eax]
      suspend point dex PC: 0x0000
      GC map objects:  v0 ([sp + #36])
      0x00004722:               89442414    	       mov [esp + 20], eax
      0x00004726:               8B4C2414    	       mov ecx, [esp + 20]
      0x0000472a:                 8B0424    	       mov eax, [esp]
      0x0000472d:                 8B4004    	       mov eax, [eax + 4]
      0x00004730:           8B8000010000    	       mov eax, [eax + 256]
      0x00004736:                 FF5024    	       call [eax + 36]
      suspend point dex PC: 0x0000
      GC map objects:  v0 ([sp + #36])
      0x00004739:                 83C41C    	       add esp, 28
      0x0000473c:                     C3    	       ret 
      0x0000473d:         64FF155C020000    	       call fs:[0x25c]  ; pTestSuspend
      suspend point dex PC: 0x0000
      GC map objects:  v0 ([sp + #36])
      0x00004744:                   EBD6    	       jmp -42 (0x0000471c)
7: Lcom/ljj/fixtest/R$mipmap; (offset=0x00002cf4) (type_idx=17) (StatusVerified) (OatClassAllCompiled)
  0: void com.ljj.fixtest.R$mipmap.<init>() (dex_method_idx=22)
    DEX CODE:
      0x0000: 7010 3d00 0000           	| invoke-direct {v0}, void java.lang.Object.<init>() // method@61
      0x0003: 0e00                     	| return-void
    OatMethodOffsets (offset=0x00002cf8)
      code_offset: 0x0000476c 
      gc_map: (offset=0x00002d70)
    OatQuickMethodHeader (offset=0x00004750)
      mapping_table: (offset=0x000030ec)
      vmap_table: (offset=0x00003320)
      v65535/r8
    QuickMethodFrameInfo
      frame_size_in_bytes: 32
      core_spill_mask: 0x00000100 (r8)
      fp_spill_mask: 0x00000000 
      vr_stack_locations:
      	ins: v0[sp + #36]
      	method*: v1[sp + #0]
      	outs: v0[sp + #4]
    CODE: (code_offset=0x0000476c size_offset=0x00004768 size=74)...
      0x0000476c:         85842400E0FFFF    	       test eax, [esp + -8192]
      suspend point dex PC: 0x0000
      GC map objects:  v0 ([sp + #36])
      0x00004773:                 83EC1C    	       sub esp, 28
      0x00004776:                 890424    	       mov [esp], eax
      0x00004779:               894C2424    	       mov [esp + 36], ecx
      0x0000477d:     6466833D0000000000    	       cmpw fs:[0x0], 0  ; state_and_flags
      0x00004786:           0F8521000000    	       jnz/ne +33 (0x000047ad)
      0x0000478c:               8B442424    	       mov eax, [esp + 36]
      0x00004790:                   8500    	       test eax, [eax]
      suspend point dex PC: 0x0000
      GC map objects:  v0 ([sp + #36])
      0x00004792:               89442414    	       mov [esp + 20], eax
      0x00004796:               8B4C2414    	       mov ecx, [esp + 20]
      0x0000479a:                 8B0424    	       mov eax, [esp]
      0x0000479d:                 8B4004    	       mov eax, [eax + 4]
      0x000047a0:           8B8000010000    	       mov eax, [eax + 256]
      0x000047a6:                 FF5024    	       call [eax + 36]
      suspend point dex PC: 0x0000
      GC map objects:  v0 ([sp + #36])
      0x000047a9:                 83C41C    	       add esp, 28
      0x000047ac:                     C3    	       ret 
      0x000047ad:         64FF155C020000    	       call fs:[0x25c]  ; pTestSuspend
      suspend point dex PC: 0x0000
      GC map objects:  v0 ([sp + #36])
      0x000047b4:                   EBD6    	       jmp -42 (0x0000478c)
8: Lcom/ljj/fixtest/R$string; (offset=0x00002cfc) (type_idx=18) (StatusVerified) (OatClassAllCompiled)
  0: void com.ljj.fixtest.R$string.<init>() (dex_method_idx=23)
    DEX CODE:
      0x0000: 7010 3d00 0000           	| invoke-direct {v0}, void java.lang.Object.<init>() // method@61
      0x0003: 0e00                     	| return-void
    OatMethodOffsets (offset=0x00002d00)
      code_offset: 0x000047dc 
      gc_map: (offset=0x00002d70)
    OatQuickMethodHeader (offset=0x000047c0)
      mapping_table: (offset=0x000030ec)
      vmap_table: (offset=0x00003320)
      v65535/r8
    QuickMethodFrameInfo
      frame_size_in_bytes: 32
      core_spill_mask: 0x00000100 (r8)
      fp_spill_mask: 0x00000000 
      vr_stack_locations:
      	ins: v0[sp + #36]
      	method*: v1[sp + #0]
      	outs: v0[sp + #4]
    CODE: (code_offset=0x000047dc size_offset=0x000047d8 size=74)...
      0x000047dc:         85842400E0FFFF    	       test eax, [esp + -8192]
      suspend point dex PC: 0x0000
      GC map objects:  v0 ([sp + #36])
      0x000047e3:                 83EC1C    	       sub esp, 28
      0x000047e6:                 890424    	       mov [esp], eax
      0x000047e9:               894C2424    	       mov [esp + 36], ecx
      0x000047ed:     6466833D0000000000    	       cmpw fs:[0x0], 0  ; state_and_flags
      0x000047f6:           0F8521000000    	       jnz/ne +33 (0x0000481d)
      0x000047fc:               8B442424    	       mov eax, [esp + 36]
      0x00004800:                   8500    	       test eax, [eax]
      suspend point dex PC: 0x0000
      GC map objects:  v0 ([sp + #36])
      0x00004802:               89442414    	       mov [esp + 20], eax
      0x00004806:               8B4C2414    	       mov ecx, [esp + 20]
      0x0000480a:                 8B0424    	       mov eax, [esp]
      0x0000480d:                 8B4004    	       mov eax, [eax + 4]
      0x00004810:           8B8000010000    	       mov eax, [eax + 256]
      0x00004816:                 FF5024    	       call [eax + 36]
      suspend point dex PC: 0x0000
      GC map objects:  v0 ([sp + #36])
      0x00004819:                 83C41C    	       add esp, 28
      0x0000481c:                     C3    	       ret 
      0x0000481d:         64FF155C020000    	       call fs:[0x25c]  ; pTestSuspend
      suspend point dex PC: 0x0000
      GC map objects:  v0 ([sp + #36])
      0x00004824:                   EBD6    	       jmp -42 (0x000047fc)
9: Lcom/ljj/fixtest/R; (offset=0x00002d04) (type_idx=19) (StatusInitialized) (OatClassAllCompiled)
  0: void com.ljj.fixtest.R.<init>() (dex_method_idx=24)
    DEX CODE:
      0x0000: 7010 3d00 0000           	| invoke-direct {v0}, void java.lang.Object.<init>() // method@61
      0x0003: 0e00                     	| return-void
    OatMethodOffsets (offset=0x00002d08)
      code_offset: 0x0000484c 
      gc_map: (offset=0x00002d70)
    OatQuickMethodHeader (offset=0x00004830)
      mapping_table: (offset=0x000030ec)
      vmap_table: (offset=0x00003320)
      v65535/r8
    QuickMethodFrameInfo
      frame_size_in_bytes: 32
      core_spill_mask: 0x00000100 (r8)
      fp_spill_mask: 0x00000000 
      vr_stack_locations:
      	ins: v0[sp + #36]
      	method*: v1[sp + #0]
      	outs: v0[sp + #4]
    CODE: (code_offset=0x0000484c size_offset=0x00004848 size=74)...
      0x0000484c:         85842400E0FFFF    	       test eax, [esp + -8192]
      suspend point dex PC: 0x0000
      GC map objects:  v0 ([sp + #36])
      0x00004853:                 83EC1C    	       sub esp, 28
      0x00004856:                 890424    	       mov [esp], eax
      0x00004859:               894C2424    	       mov [esp + 36], ecx
      0x0000485d:     6466833D0000000000    	       cmpw fs:[0x0], 0  ; state_and_flags
      0x00004866:           0F8521000000    	       jnz/ne +33 (0x0000488d)
      0x0000486c:               8B442424    	       mov eax, [esp + 36]
      0x00004870:                   8500    	       test eax, [eax]
      suspend point dex PC: 0x0000
      GC map objects:  v0 ([sp + #36])
      0x00004872:               89442414    	       mov [esp + 20], eax
      0x00004876:               8B4C2414    	       mov ecx, [esp + 20]
      0x0000487a:                 8B0424    	       mov eax, [esp]
      0x0000487d:                 8B4004    	       mov eax, [eax + 4]
      0x00004880:           8B8000010000    	       mov eax, [eax + 256]
      0x00004886:                 FF5024    	       call [eax + 36]
      suspend point dex PC: 0x0000
      GC map objects:  v0 ([sp + #36])
      0x00004889:                 83C41C    	       add esp, 28
      0x0000488c:                     C3    	       ret 
      0x0000488d:         64FF155C020000    	       call fs:[0x25c]  ; pTestSuspend
      suspend point dex PC: 0x0000
      GC map objects:  v0 ([sp + #36])
      0x00004894:                   EBD6    	       jmp -42 (0x0000486c)
10: Lcom/ljj/fixtest/Test; (offset=0x00002d0c) (type_idx=20) (StatusInitialized) (OatClassAllCompiled)
  0: void com.ljj.fixtest.Test.<init>() (dex_method_idx=25)
    DEX CODE:
      0x0000: 7010 3d00 0000           	| invoke-direct {v0}, void java.lang.Object.<init>() // method@61
      0x0003: 0e00                     	| return-void
    OatMethodOffsets (offset=0x00002d10)
      code_offset: 0x000048bc 
      gc_map: (offset=0x00002d70)
    OatQuickMethodHeader (offset=0x000048a0)
      mapping_table: (offset=0x000030ec)
      vmap_table: (offset=0x00003320)
      v65535/r8
    QuickMethodFrameInfo
      frame_size_in_bytes: 32
      core_spill_mask: 0x00000100 (r8)
      fp_spill_mask: 0x00000000 
      vr_stack_locations:
      	ins: v0[sp + #36]
      	method*: v1[sp + #0]
      	outs: v0[sp + #4]
    CODE: (code_offset=0x000048bc size_offset=0x000048b8 size=74)...
      0x000048bc:         85842400E0FFFF    	       test eax, [esp + -8192]
      suspend point dex PC: 0x0000
      GC map objects:  v0 ([sp + #36])
      0x000048c3:                 83EC1C    	       sub esp, 28
      0x000048c6:                 890424    	       mov [esp], eax
      0x000048c9:               894C2424    	       mov [esp + 36], ecx
      0x000048cd:     6466833D0000000000    	       cmpw fs:[0x0], 0  ; state_and_flags
      0x000048d6:           0F8521000000    	       jnz/ne +33 (0x000048fd)
      0x000048dc:               8B442424    	       mov eax, [esp + 36]
      0x000048e0:                   8500    	       test eax, [eax]
      suspend point dex PC: 0x0000
      GC map objects:  v0 ([sp + #36])
      0x000048e2:               89442414    	       mov [esp + 20], eax
      0x000048e6:               8B4C2414    	       mov ecx, [esp + 20]
      0x000048ea:                 8B0424    	       mov eax, [esp]
      0x000048ed:                 8B4004    	       mov eax, [eax + 4]
      0x000048f0:           8B8000010000    	       mov eax, [eax + 256]
      0x000048f6:                 FF5024    	       call [eax + 36]
      suspend point dex PC: 0x0000
      GC map objects:  v0 ([sp + #36])
      0x000048f9:                 83C41C    	       add esp, 28
      0x000048fc:                     C3    	       ret 
      0x000048fd:         64FF155C020000    	       call fs:[0x25c]  ; pTestSuspend
      suspend point dex PC: 0x0000
      GC map objects:  v0 ([sp + #36])
      0x00004904:                   EBD6    	       jmp -42 (0x000048dc)
  1: java.lang.String com.ljj.fixtest.Test.showTest1() (dex_method_idx=26)
    DEX CODE:
      0x0000: 1a00 9f00                	| const-string v0, "ljj" // string@159
      0x0002: 1a01 be00                	| const-string v1, "showTest1: " // string@190
      0x0004: 7120 0800 1000           	| invoke-static {v0, v1}, int android.util.Log.i(java.lang.String, java.lang.String) // method@8
      0x0007: 1a00 9f00                	| const-string v0, "ljj" // string@159
      0x0009: 1a01 bf00                	| const-string v1, "showTest2: " // string@191
      0x000b: 7120 0800 1000           	| invoke-static {v0, v1}, int android.util.Log.i(java.lang.String, java.lang.String) // method@8
      0x000e: 1a00 9f00                	| const-string v0, "ljj" // string@159
      0x0010: 1a01 c000                	| const-string v1, "showTest3: " // string@192
      0x0012: 7120 0800 1000           	| invoke-static {v0, v1}, int android.util.Log.i(java.lang.String, java.lang.String) // method@8
      0x0015: 1a00 6500                	| const-string v0, "art address error" // string@101
      0x0017: 1100                     	| return-object v0
    OatMethodOffsets (offset=0x00002d14)
      code_offset: 0x0000492c 
      gc_map: (offset=0x00002e1c)
    OatQuickMethodHeader (offset=0x00004910)
      mapping_table: (offset=0x00003164)
      vmap_table: (offset=0x00003320)
      v65535/r8
    QuickMethodFrameInfo
      frame_size_in_bytes: 32
      core_spill_mask: 0x00000100 (r8)
      fp_spill_mask: 0x00000000 
      vr_stack_locations:
      	locals: v0[sp + #16] v1[sp + #20]
      	ins: v2[sp + #36]
      	method*: v3[sp + #0]
      	outs: v0[sp + #4] v1[sp + #8]
    CODE: (code_offset=0x0000492c size_offset=0x00004928 size=605)...
      0x0000492c:         85842400E0FFFF    	       test eax, [esp + -8192]
      suspend point dex PC: 0x0000
      GC map objects:  v2 ([sp + #36])
      0x00004933:                 83EC1C    	       sub esp, 28
      0x00004936:                 890424    	       mov [esp], eax
      0x00004939:               894C2424    	       mov [esp + 36], ecx
      0x0000493d:     6466833D0000000000    	       cmpw fs:[0x0], 0  ; state_and_flags
      0x00004946:           0F8554010000    	       jnz/ne +340 (0x00004aa0)
      0x0000494c:                 8B0424    	       mov eax, [esp]
      0x0000494f:                   8B00    	       mov eax, [eax]
      0x00004951:                 8B4014    	       mov eax, [eax + 20]
      0x00004954:           8B8088020000    	       mov eax, [eax + 648]
      0x0000495a:                   85C0    	       test eax, eax
      0x0000495c:           0F844A010000    	       jz/eq +330 (0x00004aac)
      0x00004962:               89442410    	       mov [esp + 16], eax
      0x00004966:                 8B0424    	       mov eax, [esp]
      0x00004969:                   8B00    	       mov eax, [eax]
      0x0000496b:                 8B4014    	       mov eax, [eax + 20]
      0x0000496e:           8B8004030000    	       mov eax, [eax + 772]
      0x00004974:                   85C0    	       test eax, eax
      0x00004976:           0F8441010000    	       jz/eq +321 (0x00004abd)
      0x0000497c:               89442414    	       mov [esp + 20], eax
      0x00004980:                 8B0424    	       mov eax, [esp]
      0x00004983:                 8B4008    	       mov eax, [eax + 8]
      0x00004986:                 8B4028    	       mov eax, [eax + 40]
      0x00004989:                   85C0    	       test eax, eax
      0x0000498b:           0F843D010000    	       jz/eq +317 (0x00004ace)
      0x00004991:         83B8840000000A    	       cmp [eax + 132], 10
      0x00004998:           0F8C41010000    	       jl/nge +321 (0x00004adf)
      0x0000499e:               8B4C2410    	       mov ecx, [esp + 16]
      0x000049a2:               8B542414    	       mov edx, [esp + 20]
      0x000049a6:                 8B0424    	       mov eax, [esp]
      0x000049a9:                 8B4004    	       mov eax, [eax + 4]
      0x000049ac:                 8B402C    	       mov eax, [eax + 44]
      0x000049af:                 FF5024    	       call [eax + 36]
      suspend point dex PC: 0x0004
      GC map objects:  v0 ([sp + #16]), v1 ([sp + #20]), v2 ([sp + #36])
      0x000049b2:                 8B0424    	       mov eax, [esp]
      0x000049b5:                   8B00    	       mov eax, [eax]
      0x000049b7:                 8B4014    	       mov eax, [eax + 20]
      0x000049ba:           8B8088020000    	       mov eax, [eax + 648]
      0x000049c0:                   85C0    	       test eax, eax
      0x000049c2:           0F8428010000    	       jz/eq +296 (0x00004af0)
      0x000049c8:               89442410    	       mov [esp + 16], eax
      0x000049cc:                 8B0424    	       mov eax, [esp]
      0x000049cf:                   8B00    	       mov eax, [eax]
      0x000049d1:                 8B4014    	       mov eax, [eax + 20]
      0x000049d4:           8B8008030000    	       mov eax, [eax + 776]
      0x000049da:                   85C0    	       test eax, eax
      0x000049dc:           0F841F010000    	       jz/eq +287 (0x00004b01)
      0x000049e2:               89442414    	       mov [esp + 20], eax
      0x000049e6:                 8B0424    	       mov eax, [esp]
      0x000049e9:                 8B4008    	       mov eax, [eax + 8]
      0x000049ec:                 8B4028    	       mov eax, [eax + 40]
      0x000049ef:                   85C0    	       test eax, eax
      0x000049f1:           0F841B010000    	       jz/eq +283 (0x00004b12)
      0x000049f7:         83B8840000000A    	       cmp [eax + 132], 10
      0x000049fe:           0F8C1F010000    	       jl/nge +287 (0x00004b23)
      0x00004a04:               8B4C2410    	       mov ecx, [esp + 16]
      0x00004a08:               8B542414    	       mov edx, [esp + 20]
      0x00004a0c:                 8B0424    	       mov eax, [esp]
      0x00004a0f:                 8B4004    	       mov eax, [eax + 4]
      0x00004a12:                 8B402C    	       mov eax, [eax + 44]
      0x00004a15:                 FF5024    	       call [eax + 36]
      suspend point dex PC: 0x000b
      GC map objects:  v0 ([sp + #16]), v1 ([sp + #20]), v2 ([sp + #36])
      0x00004a18:                 8B0424    	       mov eax, [esp]
      0x00004a1b:                   8B00    	       mov eax, [eax]
      0x00004a1d:                 8B4014    	       mov eax, [eax + 20]
      0x00004a20:           8B8088020000    	       mov eax, [eax + 648]
      0x00004a26:                   85C0    	       test eax, eax
      0x00004a28:           0F8406010000    	       jz/eq +262 (0x00004b34)
      0x00004a2e:               89442410    	       mov [esp + 16], eax
      0x00004a32:                 8B0424    	       mov eax, [esp]
      0x00004a35:                   8B00    	       mov eax, [eax]
      0x00004a37:                 8B4014    	       mov eax, [eax + 20]
      0x00004a3a:           8B800C030000    	       mov eax, [eax + 780]
      0x00004a40:                   85C0    	       test eax, eax
      0x00004a42:           0F84FD000000    	       jz/eq +253 (0x00004b45)
      0x00004a48:               89442414    	       mov [esp + 20], eax
      0x00004a4c:                 8B0424    	       mov eax, [esp]
      0x00004a4f:                 8B4008    	       mov eax, [eax + 8]
      0x00004a52:                 8B4028    	       mov eax, [eax + 40]
      0x00004a55:                   85C0    	       test eax, eax
      0x00004a57:           0F84F9000000    	       jz/eq +249 (0x00004b56)
      0x00004a5d:         83B8840000000A    	       cmp [eax + 132], 10
      0x00004a64:           0F8CFD000000    	       jl/nge +253 (0x00004b67)
      0x00004a6a:               8B4C2410    	       mov ecx, [esp + 16]
      0x00004a6e:               8B542414    	       mov edx, [esp + 20]
      0x00004a72:                 8B0424    	       mov eax, [esp]
      0x00004a75:                 8B4004    	       mov eax, [eax + 4]
      0x00004a78:                 8B402C    	       mov eax, [eax + 44]
      0x00004a7b:                 FF5024    	       call [eax + 36]
      suspend point dex PC: 0x0012
      GC map objects:  v0 ([sp + #16]), v1 ([sp + #20]), v2 ([sp + #36])
      0x00004a7e:                 8B0424    	       mov eax, [esp]
      0x00004a81:                   8B00    	       mov eax, [eax]
      0x00004a83:                 8B4014    	       mov eax, [eax + 20]
      0x00004a86:           8B80A0010000    	       mov eax, [eax + 416]
      0x00004a8c:                   85C0    	       test eax, eax
      0x00004a8e:           0F84E4000000    	       jz/eq +228 (0x00004b78)
      0x00004a94:               89442410    	       mov [esp + 16], eax
      0x00004a98:               8B442410    	       mov eax, [esp + 16]
      0x00004a9c:                 83C41C    	       add esp, 28
      0x00004a9f:                     C3    	       ret 
      0x00004aa0:         64FF155C020000    	       call fs:[0x25c]  ; pTestSuspend
      suspend point dex PC: 0x0000
      GC map objects:  v2 ([sp + #36])
      0x00004aa7:             E9A0FEFFFF    	       jmp -352 (0x0000494c)
      0x00004aac:             B89F000000    	       mov eax, 159
      0x00004ab1:         64FF154C010000    	       call fs:[0x14c]  ; pResolveString
      suspend point dex PC: 0x0000
      GC map objects:  v2 ([sp + #36])
      0x00004ab8:             E9A5FEFFFF    	       jmp -347 (0x00004962)
      0x00004abd:             B8BE000000    	       mov eax, 190
      0x00004ac2:         64FF154C010000    	       call fs:[0x14c]  ; pResolveString
      suspend point dex PC: 0x0002
      GC map objects:  v0 ([sp + #16]), v2 ([sp + #36])
      0x00004ac9:             E9AEFEFFFF    	       jmp -338 (0x0000497c)
      0x00004ace:             B807000000    	       mov eax, 7
      0x00004ad3:         64FF1548010000    	       call fs:[0x148]  ; pInitializeType
      suspend point dex PC: 0x0004
      GC map objects:  v0 ([sp + #16]), v1 ([sp + #20]), v2 ([sp + #36])
      0x00004ada:             E9B2FEFFFF    	       jmp -334 (0x00004991)
      0x00004adf:             B807000000    	       mov eax, 7
      0x00004ae4:         64FF1540010000    	       call fs:[0x140]  ; pInitializeStaticStorage
      suspend point dex PC: 0x0004
      GC map objects:  v0 ([sp + #16]), v1 ([sp + #20]), v2 ([sp + #36])
      0x00004aeb:             E9AEFEFFFF    	       jmp -338 (0x0000499e)
      0x00004af0:             B89F000000    	       mov eax, 159
      0x00004af5:         64FF154C010000    	       call fs:[0x14c]  ; pResolveString
      suspend point dex PC: 0x0007
      GC map objects:  v0 ([sp + #16]), v1 ([sp + #20]), v2 ([sp + #36])
      0x00004afc:             E9C7FEFFFF    	       jmp -313 (0x000049c8)
      0x00004b01:             B8BF000000    	       mov eax, 191
      0x00004b06:         64FF154C010000    	       call fs:[0x14c]  ; pResolveString
      suspend point dex PC: 0x0009
      GC map objects:  v0 ([sp + #16]), v1 ([sp + #20]), v2 ([sp + #36])
      0x00004b0d:             E9D0FEFFFF    	       jmp -304 (0x000049e2)
      0x00004b12:             B807000000    	       mov eax, 7
      0x00004b17:         64FF1548010000    	       call fs:[0x148]  ; pInitializeType
      suspend point dex PC: 0x000b
      GC map objects:  v0 ([sp + #16]), v1 ([sp + #20]), v2 ([sp + #36])
      0x00004b1e:             E9D4FEFFFF    	       jmp -300 (0x000049f7)
      0x00004b23:             B807000000    	       mov eax, 7
      0x00004b28:         64FF1540010000    	       call fs:[0x140]  ; pInitializeStaticStorage
      suspend point dex PC: 0x000b
      GC map objects:  v0 ([sp + #16]), v1 ([sp + #20]), v2 ([sp + #36])
      0x00004b2f:             E9D0FEFFFF    	       jmp -304 (0x00004a04)
      0x00004b34:             B89F000000    	       mov eax, 159
      0x00004b39:         64FF154C010000    	       call fs:[0x14c]  ; pResolveString
      suspend point dex PC: 0x000e
      GC map objects:  v0 ([sp + #16]), v1 ([sp + #20]), v2 ([sp + #36])
      0x00004b40:             E9E9FEFFFF    	       jmp -279 (0x00004a2e)
      0x00004b45:             B8C0000000    	       mov eax, 192
      0x00004b4a:         64FF154C010000    	       call fs:[0x14c]  ; pResolveString
      suspend point dex PC: 0x0010
      GC map objects:  v0 ([sp + #16]), v1 ([sp + #20]), v2 ([sp + #36])
      0x00004b51:             E9F2FEFFFF    	       jmp -270 (0x00004a48)
      0x00004b56:             B807000000    	       mov eax, 7
      0x00004b5b:         64FF1548010000    	       call fs:[0x148]  ; pInitializeType
      suspend point dex PC: 0x0012
      GC map objects:  v0 ([sp + #16]), v1 ([sp + #20]), v2 ([sp + #36])
      0x00004b62:             E9F6FEFFFF    	       jmp -266 (0x00004a5d)
      0x00004b67:             B807000000    	       mov eax, 7
      0x00004b6c:         64FF1540010000    	       call fs:[0x140]  ; pInitializeStaticStorage
      suspend point dex PC: 0x0012
      GC map objects:  v0 ([sp + #16]), v1 ([sp + #20]), v2 ([sp + #36])
      0x00004b73:             E9F2FEFFFF    	       jmp -270 (0x00004a6a)
      0x00004b78:             B865000000    	       mov eax, 101
      0x00004b7d:         64FF154C010000    	       call fs:[0x14c]  ; pResolveString
      suspend point dex PC: 0x0015
      GC map objects:  v0 ([sp + #16]), v1 ([sp + #20]), v2 ([sp + #36])
      0x00004b84:             E90BFFFFFF    	       jmp -245 (0x00004a94)
  2: java.lang.String com.ljj.fixtest.Test.showText() (dex_method_idx=27)
    DEX CODE:
      0x0000: 1a00 1100                	| const-string v0, "I am an error" // string@17
      0x0002: 1100                     	| return-object v0
    OatMethodOffsets (offset=0x00002d18)
      code_offset: 0x00004bac 
      gc_map: (offset=0x00002e58)
    OatQuickMethodHeader (offset=0x00004b90)
      mapping_table: (offset=0x0000318c)
      vmap_table: (offset=0x00003320)
      v65535/r8
    QuickMethodFrameInfo
      frame_size_in_bytes: 16
      core_spill_mask: 0x00000100 (r8)
      fp_spill_mask: 0x00000000 
      vr_stack_locations:
      	locals: v0[sp + #4]
      	ins: v1[sp + #20]
      	method*: v2[sp + #0]
    CODE: (code_offset=0x00004bac size_offset=0x00004ba8 size=86)...
      0x00004bac:         85842400E0FFFF    	       test eax, [esp + -8192]
      suspend point dex PC: 0x0000
      GC map objects:  v1 ([sp + #20])
      0x00004bb3:                 83EC0C    	       sub esp, 12
      0x00004bb6:                 890424    	       mov [esp], eax
      0x00004bb9:               894C2414    	       mov [esp + 20], ecx
      0x00004bbd:     6466833D0000000000    	       cmpw fs:[0x0], 0  ; state_and_flags
      0x00004bc6:           0F851F000000    	       jnz/ne +31 (0x00004beb)
      0x00004bcc:                 8B0424    	       mov eax, [esp]
      0x00004bcf:                   8B00    	       mov eax, [eax]
      0x00004bd1:                 8B4014    	       mov eax, [eax + 20]
      0x00004bd4:                 8B4050    	       mov eax, [eax + 80]
      0x00004bd7:                   85C0    	       test eax, eax
      0x00004bd9:           0F8415000000    	       jz/eq +21 (0x00004bf4)
      0x00004bdf:               89442404    	       mov [esp + 4], eax
      0x00004be3:               8B442404    	       mov eax, [esp + 4]
      0x00004be7:                 83C40C    	       add esp, 12
      0x00004bea:                     C3    	       ret 
      0x00004beb:         64FF155C020000    	       call fs:[0x25c]  ; pTestSuspend
      suspend point dex PC: 0x0000
      GC map objects:  v1 ([sp + #20])
      0x00004bf2:                   EBD8    	       jmp -40 (0x00004bcc)
      0x00004bf4:             B811000000    	       mov eax, 17
      0x00004bf9:         64FF154C010000    	       call fs:[0x14c]  ; pResolveString
      suspend point dex PC: 0x0000
      GC map objects:  v1 ([sp + #20])
      0x00004c00:                   EBDD    	       jmp -35 (0x00004bdf)
11: Lcom/ljj/patch/BuildConfig; (offset=0x00002d1c) (type_idx=21) (StatusVerified) (OatClassAllCompiled)
  0: void com.ljj.patch.BuildConfig.<init>() (dex_method_idx=28)
    DEX CODE:
      0x0000: 7010 3d00 0000           	| invoke-direct {v0}, void java.lang.Object.<init>() // method@61
      0x0003: 0e00                     	| return-void
    OatMethodOffsets (offset=0x00002d20)
      code_offset: 0x00004c2c 
      gc_map: (offset=0x00002d70)
    OatQuickMethodHeader (offset=0x00004c10)
      mapping_table: (offset=0x000030ec)
      vmap_table: (offset=0x00003320)
      v65535/r8
    QuickMethodFrameInfo
      frame_size_in_bytes: 32
      core_spill_mask: 0x00000100 (r8)
      fp_spill_mask: 0x00000000 
      vr_stack_locations:
      	ins: v0[sp + #36]
      	method*: v1[sp + #0]
      	outs: v0[sp + #4]
    CODE: (code_offset=0x00004c2c size_offset=0x00004c28 size=74)...
      0x00004c2c:         85842400E0FFFF    	       test eax, [esp + -8192]
      suspend point dex PC: 0x0000
      GC map objects:  v0 ([sp + #36])
      0x00004c33:                 83EC1C    	       sub esp, 28
      0x00004c36:                 890424    	       mov [esp], eax
      0x00004c39:               894C2424    	       mov [esp + 36], ecx
      0x00004c3d:     6466833D0000000000    	       cmpw fs:[0x0], 0  ; state_and_flags
      0x00004c46:           0F8521000000    	       jnz/ne +33 (0x00004c6d)
      0x00004c4c:               8B442424    	       mov eax, [esp + 36]
      0x00004c50:                   8500    	       test eax, [eax]
      suspend point dex PC: 0x0000
      GC map objects:  v0 ([sp + #36])
      0x00004c52:               89442414    	       mov [esp + 20], eax
      0x00004c56:               8B4C2414    	       mov ecx, [esp + 20]
      0x00004c5a:                 8B0424    	       mov eax, [esp]
      0x00004c5d:                 8B4004    	       mov eax, [eax + 4]
      0x00004c60:           8B8000010000    	       mov eax, [eax + 256]
      0x00004c66:                 FF5024    	       call [eax + 36]
      suspend point dex PC: 0x0000
      GC map objects:  v0 ([sp + #36])
      0x00004c69:                 83C41C    	       add esp, 28
      0x00004c6c:                     C3    	       ret 
      0x00004c6d:         64FF155C020000    	       call fs:[0x25c]  ; pTestSuspend
      suspend point dex PC: 0x0000
      GC map objects:  v0 ([sp + #36])
      0x00004c74:                   EBD6    	       jmp -42 (0x00004c4c)
12: Lcom/ljj/patch/R$string; (offset=0x00002d24) (type_idx=22) (StatusVerified) (OatClassAllCompiled)
  0: void com.ljj.patch.R$string.<init>() (dex_method_idx=29)
    DEX CODE:
      0x0000: 7010 3d00 0000           	| invoke-direct {v0}, void java.lang.Object.<init>() // method@61
      0x0003: 0e00                     	| return-void
    OatMethodOffsets (offset=0x00002d28)
      code_offset: 0x00004c9c 
      gc_map: (offset=0x00002d70)
    OatQuickMethodHeader (offset=0x00004c80)
      mapping_table: (offset=0x000030ec)
      vmap_table: (offset=0x00003320)
      v65535/r8
    QuickMethodFrameInfo
      frame_size_in_bytes: 32
      core_spill_mask: 0x00000100 (r8)
      fp_spill_mask: 0x00000000 
      vr_stack_locations:
      	ins: v0[sp + #36]
      	method*: v1[sp + #0]
      	outs: v0[sp + #4]
    CODE: (code_offset=0x00004c9c size_offset=0x00004c98 size=74)...
      0x00004c9c:         85842400E0FFFF    	       test eax, [esp + -8192]
      suspend point dex PC: 0x0000
      GC map objects:  v0 ([sp + #36])
      0x00004ca3:                 83EC1C    	       sub esp, 28
      0x00004ca6:                 890424    	       mov [esp], eax
      0x00004ca9:               894C2424    	       mov [esp + 36], ecx
      0x00004cad:     6466833D0000000000    	       cmpw fs:[0x0], 0  ; state_and_flags
      0x00004cb6:           0F8521000000    	       jnz/ne +33 (0x00004cdd)
      0x00004cbc:               8B442424    	       mov eax, [esp + 36]
      0x00004cc0:                   8500    	       test eax, [eax]
      suspend point dex PC: 0x0000
      GC map objects:  v0 ([sp + #36])
      0x00004cc2:               89442414    	       mov [esp + 20], eax
      0x00004cc6:               8B4C2414    	       mov ecx, [esp + 20]
      0x00004cca:                 8B0424    	       mov eax, [esp]
      0x00004ccd:                 8B4004    	       mov eax, [eax + 4]
      0x00004cd0:           8B8000010000    	       mov eax, [eax + 256]
      0x00004cd6:                 FF5024    	       call [eax + 36]
      suspend point dex PC: 0x0000
      GC map objects:  v0 ([sp + #36])
      0x00004cd9:                 83C41C    	       add esp, 28
      0x00004cdc:                     C3    	       ret 
      0x00004cdd:         64FF155C020000    	       call fs:[0x25c]  ; pTestSuspend
      suspend point dex PC: 0x0000
      GC map objects:  v0 ([sp + #36])
      0x00004ce4:                   EBD6    	       jmp -42 (0x00004cbc)
13: Lcom/ljj/patch/R; (offset=0x00002d2c) (type_idx=23) (StatusInitialized) (OatClassAllCompiled)
  0: void com.ljj.patch.R.<init>() (dex_method_idx=30)
    DEX CODE:
      0x0000: 7010 3d00 0000           	| invoke-direct {v0}, void java.lang.Object.<init>() // method@61
      0x0003: 0e00                     	| return-void
    OatMethodOffsets (offset=0x00002d30)
      code_offset: 0x00004d0c 
      gc_map: (offset=0x00002d70)
    OatQuickMethodHeader (offset=0x00004cf0)
      mapping_table: (offset=0x000030ec)
      vmap_table: (offset=0x00003320)
      v65535/r8
    QuickMethodFrameInfo
      frame_size_in_bytes: 32
      core_spill_mask: 0x00000100 (r8)
      fp_spill_mask: 0x00000000 
      vr_stack_locations:
      	ins: v0[sp + #36]
      	method*: v1[sp + #0]
      	outs: v0[sp + #4]
    CODE: (code_offset=0x00004d0c size_offset=0x00004d08 size=74)...
      0x00004d0c:         85842400E0FFFF    	       test eax, [esp + -8192]
      suspend point dex PC: 0x0000
      GC map objects:  v0 ([sp + #36])
      0x00004d13:                 83EC1C    	       sub esp, 28
      0x00004d16:                 890424    	       mov [esp], eax
      0x00004d19:               894C2424    	       mov [esp + 36], ecx
      0x00004d1d:     6466833D0000000000    	       cmpw fs:[0x0], 0  ; state_and_flags
      0x00004d26:           0F8521000000    	       jnz/ne +33 (0x00004d4d)
      0x00004d2c:               8B442424    	       mov eax, [esp + 36]
      0x00004d30:                   8500    	       test eax, [eax]
      suspend point dex PC: 0x0000
      GC map objects:  v0 ([sp + #36])
      0x00004d32:               89442414    	       mov [esp + 20], eax
      0x00004d36:               8B4C2414    	       mov ecx, [esp + 20]
      0x00004d3a:                 8B0424    	       mov eax, [esp]
      0x00004d3d:                 8B4004    	       mov eax, [eax + 4]
      0x00004d40:           8B8000010000    	       mov eax, [eax + 256]
      0x00004d46:                 FF5024    	       call [eax + 36]
      suspend point dex PC: 0x0000
      GC map objects:  v0 ([sp + #36])
      0x00004d49:                 83C41C    	       add esp, 28
      0x00004d4c:                     C3    	       ret 
      0x00004d4d:         64FF155C020000    	       call fs:[0x25c]  ; pTestSuspend
      suspend point dex PC: 0x0000
      GC map objects:  v0 ([sp + #36])
      0x00004d54:                   EBD6    	       jmp -42 (0x00004d2c)
14: Lcom/ljj/patch/util/AssetUtils; (offset=0x00002d34) (type_idx=24) (StatusInitialized) (OatClassAllCompiled)
  0: void com.ljj.patch.util.AssetUtils.<init>() (dex_method_idx=31)
    DEX CODE:
      0x0000: 7010 3d00 0000           	| invoke-direct {v0}, void java.lang.Object.<init>() // method@61
      0x0003: 0e00                     	| return-void
    OatMethodOffsets (offset=0x00002d38)
      code_offset: 0x00004d7c 
      gc_map: (offset=0x00002d70)
    OatQuickMethodHeader (offset=0x00004d60)
      mapping_table: (offset=0x000030ec)
      vmap_table: (offset=0x00003320)
      v65535/r8
    QuickMethodFrameInfo
      frame_size_in_bytes: 32
      core_spill_mask: 0x00000100 (r8)
      fp_spill_mask: 0x00000000 
      vr_stack_locations:
      	ins: v0[sp + #36]
      	method*: v1[sp + #0]
      	outs: v0[sp + #4]
    CODE: (code_offset=0x00004d7c size_offset=0x00004d78 size=74)...
      0x00004d7c:         85842400E0FFFF    	       test eax, [esp + -8192]
      suspend point dex PC: 0x0000
      GC map objects:  v0 ([sp + #36])
      0x00004d83:                 83EC1C    	       sub esp, 28
      0x00004d86:                 890424    	       mov [esp], eax
      0x00004d89:               894C2424    	       mov [esp + 36], ecx
      0x00004d8d:     6466833D0000000000    	       cmpw fs:[0x0], 0  ; state_and_flags
      0x00004d96:           0F8521000000    	       jnz/ne +33 (0x00004dbd)
      0x00004d9c:               8B442424    	       mov eax, [esp + 36]
      0x00004da0:                   8500    	       test eax, [eax]
      suspend point dex PC: 0x0000
      GC map objects:  v0 ([sp + #36])
      0x00004da2:               89442414    	       mov [esp + 20], eax
      0x00004da6:               8B4C2414    	       mov ecx, [esp + 20]
      0x00004daa:                 8B0424    	       mov eax, [esp]
      0x00004dad:                 8B4004    	       mov eax, [eax + 4]
      0x00004db0:           8B8000010000    	       mov eax, [eax + 256]
      0x00004db6:                 FF5024    	       call [eax + 36]
      suspend point dex PC: 0x0000
      GC map objects:  v0 ([sp + #36])
      0x00004db9:                 83C41C    	       add esp, 28
      0x00004dbc:                     C3    	       ret 
      0x00004dbd:         64FF155C020000    	       call fs:[0x25c]  ; pTestSuspend
      suspend point dex PC: 0x0000
      GC map objects:  v0 ([sp + #36])
      0x00004dc4:                   EBD6    	       jmp -42 (0x00004d9c)
  1: void com.ljj.patch.util.AssetUtils.copyAssets(android.content.Context, java.lang.String, java.lang.String) (dex_method_idx=32)
    DEX CODE:
      0x0000: 2201 2200                	| new-instance v1, java.io.File // type@34
      0x0002: 7020 2c00 8100           	| invoke-direct {v1, v8}, void java.io.File.<init>(java.lang.String) // method@44
      0x0005: 2204 2300                	| new-instance v4, java.io.FileOutputStream // type@35
      0x0007: 7020 2f00 1400           	| invoke-direct {v4, v1}, void java.io.FileOutputStream.<init>(java.io.File) // method@47
      0x000a: 6e10 0400 0600           	| invoke-virtual {v6}, android.content.res.AssetManager android.content.Context.getAssets() // method@4
      0x000d: 0c05                     	| move-result-object v5
      0x000e: 6e20 0600 7500           	| invoke-virtual {v5, v7}, java.io.InputStream android.content.res.AssetManager.open(java.lang.String) // method@6
      0x0011: 0c02                     	| move-result-object v2
      0x0012: 1305 0004                	| const/16 v5, #+1024
      0x0014: 2350 3400                	| new-array v0, v5, byte[] // type@52
      0x0016: 6e20 3400 0200           	| invoke-virtual {v2, v0}, int java.io.InputStream.read(byte[]) // method@52
      0x0019: 0a03                     	| move-result v3
      0x001a: 12f5                     	| const/4 v5, #-1
      0x001b: 3253 0700                	| if-eq v3, v5, +7
      0x001d: 1205                     	| const/4 v5, #+0
      0x001e: 6e40 3100 0435           	| invoke-virtual {v4, v0, v5, v3}, void java.io.FileOutputStream.write(byte[], int, int) // method@49
      0x0021: 28f5                     	| goto -11
      0x0022: 6e10 3300 0200           	| invoke-virtual {v2}, void java.io.InputStream.close() // method@51
      0x0025: 6e10 3000 0400           	| invoke-virtual {v4}, void java.io.FileOutputStream.close() // method@48
      0x0028: 0e00                     	| return-void
    OatMethodOffsets (offset=0x00002d3c)
      code_offset: 0x00004dec 
      gc_map: (offset=0x00002e64)
    OatQuickMethodHeader (offset=0x00004dd0)
      mapping_table: (offset=0x00003194)
      vmap_table: (offset=0x00003320)
      v65535/r8
    QuickMethodFrameInfo
      frame_size_in_bytes: 64
      core_spill_mask: 0x00000100 (r8)
      fp_spill_mask: 0x00000000 
      vr_stack_locations:
      	locals: v0[sp + #32] v1[sp + #36] v2[sp + #40] v3[sp + #44] v4[sp + #48] v5[sp + #52]
      	ins: v6[sp + #68] v7[sp + #72] v8[sp + #76]
      	method*: v9[sp + #0]
      	outs: v0[sp + #4] v1[sp + #8] v2[sp + #12] v3[sp + #16]
    CODE: (code_offset=0x00004dec size_offset=0x00004de8 size=452)...
      0x00004dec:         85842400E0FFFF    	       test eax, [esp + -8192]
      suspend point dex PC: 0x0000
      GC map objects:  v6 ([sp + #68]), v7 ([sp + #72]), v8 ([sp + #76])
      0x00004df3:                 83EC3C    	       sub esp, 60
      0x00004df6:                 890424    	       mov [esp], eax
      0x00004df9:               894C2444    	       mov [esp + 68], ecx
      0x00004dfd:               89542448    	       mov [esp + 72], edx
      0x00004e01:               895C244C    	       mov [esp + 76], ebx
      0x00004e05:     6466833D0000000000    	       cmpw fs:[0x0], 0  ; state_and_flags
      0x00004e0e:           0F8587010000    	       jnz/ne +391 (0x00004f9b)
      0x00004e14:                 8B0C24    	       mov ecx, [esp]
      0x00004e17:             B822000000    	       mov eax, 34
      0x00004e1c:         64FF1514010000    	       call fs:[0x114]  ; pAllocObject
      suspend point dex PC: 0x0000
      GC map objects:  v6 ([sp + #68]), v7 ([sp + #72]), v8 ([sp + #76])
      0x00004e23:               89442424    	       mov [esp + 36], eax
      0x00004e27:               8B442424    	       mov eax, [esp + 36]
      0x00004e2b:                   8500    	       test eax, [eax]
      suspend point dex PC: 0x0002
      GC map objects:  v1 ([sp + #36]), v6 ([sp + #68]), v7 ([sp + #72]), v8 ([sp + #76])
      0x00004e2d:               8944241C    	       mov [esp + 28], eax
      0x00004e31:               8B4C241C    	       mov ecx, [esp + 28]
      0x00004e35:               8B54244C    	       mov edx, [esp + 76]
      0x00004e39:                 8B0424    	       mov eax, [esp]
      0x00004e3c:                 8B4004    	       mov eax, [eax + 4]
      0x00004e3f:           8B80BC000000    	       mov eax, [eax + 188]
      0x00004e45:                 FF5024    	       call [eax + 36]
      suspend point dex PC: 0x0002
      GC map objects:  v1 ([sp + #36]), v6 ([sp + #68]), v7 ([sp + #72]), v8 ([sp + #76])
      0x00004e48:                 8B0C24    	       mov ecx, [esp]
      0x00004e4b:             B823000000    	       mov eax, 35
      0x00004e50:         64FF1514010000    	       call fs:[0x114]  ; pAllocObject
      suspend point dex PC: 0x0005
      GC map objects:  v1 ([sp + #36]), v6 ([sp + #68]), v7 ([sp + #72]), v8 ([sp + #76])
      0x00004e57:               89442430    	       mov [esp + 48], eax
      0x00004e5b:               8B442430    	       mov eax, [esp + 48]
      0x00004e5f:                   8500    	       test eax, [eax]
      suspend point dex PC: 0x0007
      GC map objects:  v1 ([sp + #36]), v4 ([sp + #48]), v6 ([sp + #68]), v7 ([sp + #72]), v8 ([sp + #76])
      0x00004e61:               8944241C    	       mov [esp + 28], eax
      0x00004e65:               8B4C241C    	       mov ecx, [esp + 28]
      0x00004e69:               8B542424    	       mov edx, [esp + 36]
      0x00004e6d:                 8B0424    	       mov eax, [esp]
      0x00004e70:                 8B4004    	       mov eax, [eax + 4]
      0x00004e73:           8B80C8000000    	       mov eax, [eax + 200]
      0x00004e79:                 FF5024    	       call [eax + 36]
      suspend point dex PC: 0x0007
      GC map objects:  v1 ([sp + #36]), v4 ([sp + #48]), v6 ([sp + #68]), v7 ([sp + #72]), v8 ([sp + #76])
      0x00004e7c:               8B442444    	       mov eax, [esp + 68]
      0x00004e80:                   8500    	       test eax, [eax]
      suspend point dex PC: 0x000a
      GC map objects:  v1 ([sp + #36]), v4 ([sp + #48]), v6 ([sp + #68]), v7 ([sp + #72]), v8 ([sp + #76])
      0x00004e82:               8944241C    	       mov [esp + 28], eax
      0x00004e86:               8B4C241C    	       mov ecx, [esp + 28]
      0x00004e8a:                   8B01    	       mov eax, [ecx]
      0x00004e8c:           8B8038020000    	       mov eax, [eax + 568]
      0x00004e92:                 FF5024    	       call [eax + 36]
      suspend point dex PC: 0x000a
      GC map objects:  v1 ([sp + #36]), v4 ([sp + #48]), v6 ([sp + #68]), v7 ([sp + #72]), v8 ([sp + #76])
      0x00004e95:               89442434    	       mov [esp + 52], eax
      0x00004e99:               8B442434    	       mov eax, [esp + 52]
      0x00004e9d:                   8500    	       test eax, [eax]
      suspend point dex PC: 0x000e
      GC map objects:  v1 ([sp + #36]), v4 ([sp + #48]), v5 ([sp + #52]), v6 ([sp + #68]), v7 ([sp + #72]), v8 ([sp + #76])
      0x00004e9f:               8944241C    	       mov [esp + 28], eax
      0x00004ea3:               8B4C241C    	       mov ecx, [esp + 28]
      0x00004ea7:               8B542448    	       mov edx, [esp + 72]
      0x00004eab:                 8B0424    	       mov eax, [esp]
      0x00004eae:                 8B4004    	       mov eax, [eax + 4]
      0x00004eb1:                 8B4024    	       mov eax, [eax + 36]
      0x00004eb4:                 FF5024    	       call [eax + 36]
      suspend point dex PC: 0x000e
      GC map objects:  v1 ([sp + #36]), v4 ([sp + #48]), v5 ([sp + #52]), v6 ([sp + #68]), v7 ([sp + #72]), v8 ([sp + #76])
      0x00004eb7:               89442428    	       mov [esp + 40], eax
      0x00004ebb:       C744243400040000    	       mov [esp + 52], 1024
      0x00004ec3:               8B4C2434    	       mov ecx, [esp + 52]
      0x00004ec7:                 8B1424    	       mov edx, [esp]
      0x00004eca:             B834000000    	       mov eax, 52
      0x00004ecf:         64FF1508010000    	       call fs:[0x108]  ; pAllocArray
      suspend point dex PC: 0x0014
      GC map objects:  v1 ([sp + #36]), v2 ([sp + #40]), v4 ([sp + #48]), v6 ([sp + #68]), v7 ([sp + #72]), v8 ([sp + #76])
      0x00004ed6:               89442420    	       mov [esp + 32], eax
      0x00004eda:               8B442428    	       mov eax, [esp + 40]
      0x00004ede:                   8500    	       test eax, [eax]
      suspend point dex PC: 0x0016
      GC map objects:  v0 ([sp + #32]), v1 ([sp + #36]), v2 ([sp + #40]), v4 ([sp + #48]), v6 ([sp + #68]), v7 ([sp + #72]), v8 ([sp + #76])
      0x00004ee0:               8944241C    	       mov [esp + 28], eax
      0x00004ee4:               8B4C241C    	       mov ecx, [esp + 28]
      0x00004ee8:               8B542420    	       mov edx, [esp + 32]
      0x00004eec:                   8B01    	       mov eax, [ecx]
      0x00004eee:           8B80CC010000    	       mov eax, [eax + 460]
      0x00004ef4:                 FF5024    	       call [eax + 36]
      suspend point dex PC: 0x0016
      GC map objects:  v0 ([sp + #32]), v1 ([sp + #36]), v2 ([sp + #40]), v4 ([sp + #48]), v6 ([sp + #68]), v7 ([sp + #72]), v8 ([sp + #76])
      0x00004ef7:               8944242C    	       mov [esp + 44], eax
      0x00004efb:       C7442434FFFFFFFF    	       mov [esp + 52], -1
      0x00004f03:               8B44242C    	       mov eax, [esp + 44]
      0x00004f07:                   33C9    	       xor ecx, ecx
      0x00004f09:               3B442434    	       cmp eax, [esp + 52]
      0x00004f0d:                 0F94C1    	       setz/eq ecx
      0x00004f10:                   89C8    	       mov eax, ecx
      0x00004f12:           0F8449000000    	       jz/eq +73 (0x00004f61)
      0x00004f18:       C744243400000000    	       mov [esp + 52], 0
      0x00004f20:               8B442430    	       mov eax, [esp + 48]
      0x00004f24:                   8500    	       test eax, [eax]
      suspend point dex PC: 0x001e
      GC map objects:  v0 ([sp + #32]), v1 ([sp + #36]), v2 ([sp + #40]), v4 ([sp + #48]), v6 ([sp + #68]), v7 ([sp + #72]), v8 ([sp + #76])
      0x00004f26:               8944241C    	       mov [esp + 28], eax
      0x00004f2a:               8B4C241C    	       mov ecx, [esp + 28]
      0x00004f2e:               8B542420    	       mov edx, [esp + 32]
      0x00004f32:               8B5C2434    	       mov ebx, [esp + 52]
      0x00004f36:               FF74242C    	       push [esp + 44]
      0x00004f3a:               8F442410    	       pop [esp + 16]
      0x00004f3e:                 8B0424    	       mov eax, [esp]
      0x00004f41:                 8B4004    	       mov eax, [eax + 4]
      0x00004f44:           8B80D0000000    	       mov eax, [eax + 208]
      0x00004f4a:                 FF5024    	       call [eax + 36]
      suspend point dex PC: 0x001e
      GC map objects:  v0 ([sp + #32]), v1 ([sp + #36]), v2 ([sp + #40]), v4 ([sp + #48]), v6 ([sp + #68]), v7 ([sp + #72]), v8 ([sp + #76])
      0x00004f4d:     6466833D0000000000    	       cmpw fs:[0x0], 0  ; state_and_flags
      0x00004f56:           0F854B000000    	       jnz/ne +75 (0x00004fa7)
      0x00004f5c:             E979FFFFFF    	       jmp -135 (0x00004eda)
      0x00004f61:               8B442428    	       mov eax, [esp + 40]
      0x00004f65:                   8500    	       test eax, [eax]
      suspend point dex PC: 0x0022
      GC map objects:  v0 ([sp + #32]), v1 ([sp + #36]), v2 ([sp + #40]), v4 ([sp + #48]), v6 ([sp + #68]), v7 ([sp + #72]), v8 ([sp + #76])
      0x00004f67:               8944241C    	       mov [esp + 28], eax
      0x00004f6b:               8B4C241C    	       mov ecx, [esp + 28]
      0x00004f6f:                   8B01    	       mov eax, [ecx]
      0x00004f71:           8B80BC010000    	       mov eax, [eax + 444]
      0x00004f77:                 FF5024    	       call [eax + 36]
      suspend point dex PC: 0x0022
      GC map objects:  v0 ([sp + #32]), v1 ([sp + #36]), v2 ([sp + #40]), v4 ([sp + #48]), v6 ([sp + #68]), v7 ([sp + #72]), v8 ([sp + #76])
      0x00004f7a:               8B442430    	       mov eax, [esp + 48]
      0x00004f7e:                   8500    	       test eax, [eax]
      suspend point dex PC: 0x0025
      GC map objects:  v0 ([sp + #32]), v1 ([sp + #36]), v2 ([sp + #40]), v4 ([sp + #48]), v6 ([sp + #68]), v7 ([sp + #72]), v8 ([sp + #76])
      0x00004f80:               8944241C    	       mov [esp + 28], eax
      0x00004f84:               8B4C241C    	       mov ecx, [esp + 28]
      0x00004f88:                 8B0424    	       mov eax, [esp]
      0x00004f8b:                 8B4004    	       mov eax, [eax + 4]
      0x00004f8e:           8B80CC000000    	       mov eax, [eax + 204]
      0x00004f94:                 FF5024    	       call [eax + 36]
      suspend point dex PC: 0x0025
      GC map objects:  v0 ([sp + #32]), v1 ([sp + #36]), v2 ([sp + #40]), v4 ([sp + #48]), v6 ([sp + #68]), v7 ([sp + #72]), v8 ([sp + #76])
      0x00004f97:                 83C43C    	       add esp, 60
      0x00004f9a:                     C3    	       ret 
      0x00004f9b:         64FF155C020000    	       call fs:[0x25c]  ; pTestSuspend
      suspend point dex PC: 0x0000
      GC map objects:  v6 ([sp + #68]), v7 ([sp + #72]), v8 ([sp + #76])
      0x00004fa2:             E96DFEFFFF    	       jmp -403 (0x00004e14)
      0x00004fa7:         64FF155C020000    	       call fs:[0x25c]  ; pTestSuspend
      suspend point dex PC: 0x0021
      GC map objects:  v0 ([sp + #32]), v1 ([sp + #36]), v2 ([sp + #40]), v4 ([sp + #48]), v6 ([sp + #68]), v7 ([sp + #72]), v8 ([sp + #76])
      0x00004fae:                   EBAC    	       jmp -84 (0x00004f5c)
15: Lcom/ljj/patch/util/DexUtils; (offset=0x00002d40) (type_idx=25) (StatusInitialized) (OatClassAllCompiled)
  0: void com.ljj.patch.util.DexUtils.<init>() (dex_method_idx=33)
    DEX CODE:
      0x0000: 7010 3d00 0000           	| invoke-direct {v0}, void java.lang.Object.<init>() // method@61
      0x0003: 0e00                     	| return-void
    OatMethodOffsets (offset=0x00002d44)
      code_offset: 0x00004fcc 
      gc_map: (offset=0x00002d70)
    OatQuickMethodHeader (offset=0x00004fb0)
      mapping_table: (offset=0x000030ec)
      vmap_table: (offset=0x00003320)
      v65535/r8
    QuickMethodFrameInfo
      frame_size_in_bytes: 32
      core_spill_mask: 0x00000100 (r8)
      fp_spill_mask: 0x00000000 
      vr_stack_locations:
      	ins: v0[sp + #36]
      	method*: v1[sp + #0]
      	outs: v0[sp + #4]
    CODE: (code_offset=0x00004fcc size_offset=0x00004fc8 size=74)...
      0x00004fcc:         85842400E0FFFF    	       test eax, [esp + -8192]
      suspend point dex PC: 0x0000
      GC map objects:  v0 ([sp + #36])
      0x00004fd3:                 83EC1C    	       sub esp, 28
      0x00004fd6:                 890424    	       mov [esp], eax
      0x00004fd9:               894C2424    	       mov [esp + 36], ecx
      0x00004fdd:     6466833D0000000000    	       cmpw fs:[0x0], 0  ; state_and_flags
      0x00004fe6:           0F8521000000    	       jnz/ne +33 (0x0000500d)
      0x00004fec:               8B442424    	       mov eax, [esp + 36]
      0x00004ff0:                   8500    	       test eax, [eax]
      suspend point dex PC: 0x0000
      GC map objects:  v0 ([sp + #36])
      0x00004ff2:               89442414    	       mov [esp + 20], eax
      0x00004ff6:               8B4C2414    	       mov ecx, [esp + 20]
      0x00004ffa:                 8B0424    	       mov eax, [esp]
      0x00004ffd:                 8B4004    	       mov eax, [eax + 4]
      0x00005000:           8B8000010000    	       mov eax, [eax + 256]
      0x00005006:                 FF5024    	       call [eax + 36]
      suspend point dex PC: 0x0000
      GC map objects:  v0 ([sp + #36])
      0x00005009:                 83C41C    	       add esp, 28
      0x0000500c:                     C3    	       ret 
      0x0000500d:         64FF155C020000    	       call fs:[0x25c]  ; pTestSuspend
      suspend point dex PC: 0x0000
      GC map objects:  v0 ([sp + #36])
      0x00005014:                   EBD6    	       jmp -42 (0x00004fec)
  1: java.lang.Object com.ljj.patch.util.DexUtils.combineArray(java.lang.Object, java.lang.Object) (dex_method_idx=34)
    DEX CODE:
      0x0000: 6e10 3e00 0600           	| invoke-virtual {v6}, java.lang.Class java.lang.Object.getClass() // method@62
      0x0003: 0c05                     	| move-result-object v5
      0x0004: 6e10 3800 0500           	| invoke-virtual {v5}, java.lang.Class java.lang.Class.getComponentType() // method@56
      0x0007: 0c03                     	| move-result-object v3
      0x0008: 7110 4400 0600           	| invoke-static {v6}, int java.lang.reflect.Array.getLength(java.lang.Object) // method@68
      0x000b: 0a01                     	| move-result v1
      0x000c: 7110 4400 0700           	| invoke-static {v7}, int java.lang.reflect.Array.getLength(java.lang.Object) // method@68
      0x000f: 0a05                     	| move-result v5
      0x0010: 9000 0105                	| add-int v0, v1, v5
      0x0012: 7120 4500 0300           	| invoke-static {v3, v0}, java.lang.Object java.lang.reflect.Array.newInstance(java.lang.Class, int) // method@69
      0x0015: 0c04                     	| move-result-object v4
      0x0016: 1202                     	| const/4 v2, #+0
      0x0017: 3502 1800                	| if-ge v2, v0, +24
      0x0019: 3512 0c00                	| if-ge v2, v1, +12
      0x001b: 7120 4300 2600           	| invoke-static {v6, v2}, java.lang.Object java.lang.reflect.Array.get(java.lang.Object, int) // method@67
      0x001e: 0c05                     	| move-result-object v5
      0x001f: 7130 4600 2405           	| invoke-static {v4, v2, v5}, void java.lang.reflect.Array.set(java.lang.Object, int, java.lang.Object) // method@70
      0x0022: d802 0201                	| add-int/lit8 v2, v2, #+1
      0x0024: 28f3                     	| goto -13
      0x0025: 9105 0201                	| sub-int v5, v2, v1
      0x0027: 7120 4300 5700           	| invoke-static {v7, v5}, java.lang.Object java.lang.reflect.Array.get(java.lang.Object, int) // method@67
      0x002a: 0c05                     	| move-result-object v5
      0x002b: 7130 4600 2405           	| invoke-static {v4, v2, v5}, void java.lang.reflect.Array.set(java.lang.Object, int, java.lang.Object) // method@70
      0x002e: 28f4                     	| goto -12
      0x002f: 1104                     	| return-object v4
    OatMethodOffsets (offset=0x00002d48)
      code_offset: 0x0000503c 
      gc_map: (offset=0x00002ec0)
    OatQuickMethodHeader (offset=0x00005020)
      mapping_table: (offset=0x000031c4)
      vmap_table: (offset=0x00003320)
      v65535/r8
    QuickMethodFrameInfo
      frame_size_in_bytes: 64
      core_spill_mask: 0x00000100 (r8)
      fp_spill_mask: 0x00000000 
      vr_stack_locations:
      	locals: v0[sp + #32] v1[sp + #36] v2[sp + #40] v3[sp + #44] v4[sp + #48] v5[sp + #52]
      	ins: v6[sp + #68] v7[sp + #72]
      	method*: v8[sp + #0]
      	outs: v0[sp + #4] v1[sp + #8] v2[sp + #12]
    CODE: (code_offset=0x0000503c size_offset=0x00005038 size=924)...
      0x0000503c:         85842400E0FFFF    	       test eax, [esp + -8192]
      suspend point dex PC: 0x0000
      GC map objects:  v6 ([sp + #68]), v7 ([sp + #72])
      0x00005043:                 83EC3C    	       sub esp, 60
      0x00005046:                 890424    	       mov [esp], eax
      0x00005049:               894C2444    	       mov [esp + 68], ecx
      0x0000504d:               89542448    	       mov [esp + 72], edx
      0x00005051:     6466833D0000000000    	       cmpw fs:[0x0], 0  ; state_and_flags
      0x0000505a:           0F8566020000    	       jnz/ne +614 (0x000052c6)
      0x00005060:               8B442444    	       mov eax, [esp + 68]
      0x00005064:                   8500    	       test eax, [eax]
      suspend point dex PC: 0x0000
      GC map objects:  v6 ([sp + #68]), v7 ([sp + #72])
      0x00005066:               8944241C    	       mov [esp + 28], eax
      0x0000506a:               8B4C241C    	       mov ecx, [esp + 28]
      0x0000506e:                 8B0424    	       mov eax, [esp]
      0x00005071:                 8B4004    	       mov eax, [eax + 4]
      0x00005074:           8B8004010000    	       mov eax, [eax + 260]
      0x0000507a:                 FF5024    	       call [eax + 36]
      suspend point dex PC: 0x0000
      GC map objects:  v6 ([sp + #68]), v7 ([sp + #72])
      0x0000507d:               89442434    	       mov [esp + 52], eax
      0x00005081:               8B442434    	       mov eax, [esp + 52]
      0x00005085:                   8500    	       test eax, [eax]
      suspend point dex PC: 0x0004
      GC map objects:  v5 ([sp + #52]), v6 ([sp + #68]), v7 ([sp + #72])
      0x00005087:               8944241C    	       mov [esp + 28], eax
      0x0000508b:               8B4C241C    	       mov ecx, [esp + 28]
      0x0000508f:                 8B0424    	       mov eax, [esp]
      0x00005092:                 8B4004    	       mov eax, [eax + 4]
      0x00005095:           8B80EC000000    	       mov eax, [eax + 236]
      0x0000509b:                 FF5024    	       call [eax + 36]
      suspend point dex PC: 0x0004
      GC map objects:  v5 ([sp + #52]), v6 ([sp + #68]), v7 ([sp + #72])
      0x0000509e:               8944242C    	       mov [esp + 44], eax
      0x000050a2:                 8B0424    	       mov eax, [esp]
      0x000050a5:                 8B4008    	       mov eax, [eax + 8]
      0x000050a8:           8B80CC000000    	       mov eax, [eax + 204]
      0x000050ae:                   85C0    	       test eax, eax
      0x000050b0:           0F841C020000    	       jz/eq +540 (0x000052d2)
      0x000050b6:         83B8840000000A    	       cmp [eax + 132], 10
      0x000050bd:           0F8C20020000    	       jl/nge +544 (0x000052e3)
      0x000050c3:               8B4C2444    	       mov ecx, [esp + 68]
      0x000050c7:                 8B0424    	       mov eax, [esp]
      0x000050ca:                 8B4004    	       mov eax, [eax + 4]
      0x000050cd:           8B801C010000    	       mov eax, [eax + 284]
      0x000050d3:                 FF5024    	       call [eax + 36]
      suspend point dex PC: 0x0008
      GC map objects:  v3 ([sp + #44]), v5 ([sp + #52]), v6 ([sp + #68]), v7 ([sp + #72])
      0x000050d6:               89442424    	       mov [esp + 36], eax
      0x000050da:                 8B0424    	       mov eax, [esp]
      0x000050dd:                 8B4008    	       mov eax, [eax + 8]
      0x000050e0:           8B80CC000000    	       mov eax, [eax + 204]
      0x000050e6:                   85C0    	       test eax, eax
      0x000050e8:           0F8406020000    	       jz/eq +518 (0x000052f4)
      0x000050ee:         83B8840000000A    	       cmp [eax + 132], 10
      0x000050f5:           0F8C0A020000    	       jl/nge +522 (0x00005305)
      0x000050fb:               8B4C2448    	       mov ecx, [esp + 72]
      0x000050ff:                 8B0424    	       mov eax, [esp]
      0x00005102:                 8B4004    	       mov eax, [eax + 4]
      0x00005105:           8B801C010000    	       mov eax, [eax + 284]
      0x0000510b:                 FF5024    	       call [eax + 36]
      suspend point dex PC: 0x000c
      GC map objects:  v3 ([sp + #44]), v5 ([sp + #52]), v6 ([sp + #68]), v7 ([sp + #72])
      0x0000510e:               89442434    	       mov [esp + 52], eax
      0x00005112:               8B442424    	       mov eax, [esp + 36]
      0x00005116:               8B4C2434    	       mov ecx, [esp + 52]
      0x0000511a:                 8D1408    	       lea edx, [eax + ecx]
      0x0000511d:               89542420    	       mov [esp + 32], edx
      0x00005121:                 8B0424    	       mov eax, [esp]
      0x00005124:                 8B4008    	       mov eax, [eax + 8]
      0x00005127:           8B80CC000000    	       mov eax, [eax + 204]
      0x0000512d:                   85C0    	       test eax, eax
      0x0000512f:           0F84E1010000    	       jz/eq +481 (0x00005316)
      0x00005135:         83B8840000000A    	       cmp [eax + 132], 10
      0x0000513c:           0F8CE5010000    	       jl/nge +485 (0x00005327)
      0x00005142:               8B4C242C    	       mov ecx, [esp + 44]
      0x00005146:               8B542420    	       mov edx, [esp + 32]
      0x0000514a:                 8B0424    	       mov eax, [esp]
      0x0000514d:                 8B4004    	       mov eax, [eax + 4]
      0x00005150:           8B8020010000    	       mov eax, [eax + 288]
      0x00005156:                 FF5024    	       call [eax + 36]
      suspend point dex PC: 0x0012
      GC map objects:  v3 ([sp + #44]), v6 ([sp + #68]), v7 ([sp + #72])
      0x00005159:               89442430    	       mov [esp + 48], eax
      0x0000515d:       C744242800000000    	       mov [esp + 40], 0
      0x00005165:               8B442428    	       mov eax, [esp + 40]
      0x00005169:                   33C9    	       xor ecx, ecx
      0x0000516b:               3B442420    	       cmp eax, [esp + 32]
      0x0000516f:                 0F9DC1    	       setnl/ge ecx
      0x00005172:                   89C8    	       mov eax, ecx
      0x00005174:           0F8D44010000    	       jnl/ge +324 (0x000052be)
      0x0000517a:               8B442428    	       mov eax, [esp + 40]
      0x0000517e:                   33C9    	       xor ecx, ecx
      0x00005180:               3B442424    	       cmp eax, [esp + 36]
      0x00005184:                 0F9DC1    	       setnl/ge ecx
      0x00005187:                   89C8    	       mov eax, ecx
      0x00005189:           0F8D97000000    	       jnl/ge +151 (0x00005226)
      0x0000518f:                 8B0424    	       mov eax, [esp]
      0x00005192:                 8B4008    	       mov eax, [eax + 8]
      0x00005195:           8B80CC000000    	       mov eax, [eax + 204]
      0x0000519b:                   85C0    	       test eax, eax
      0x0000519d:           0F8495010000    	       jz/eq +405 (0x00005338)
      0x000051a3:         83B8840000000A    	       cmp [eax + 132], 10
      0x000051aa:           0F8C99010000    	       jl/nge +409 (0x00005349)
      0x000051b0:               8B4C2444    	       mov ecx, [esp + 68]
      0x000051b4:               8B542428    	       mov edx, [esp + 40]
      0x000051b8:                 8B0424    	       mov eax, [esp]
      0x000051bb:                 8B4004    	       mov eax, [eax + 4]
      0x000051be:           8B8018010000    	       mov eax, [eax + 280]
      0x000051c4:                 FF5024    	       call [eax + 36]
      suspend point dex PC: 0x001b
      GC map objects:  v3 ([sp + #44]), v4 ([sp + #48]), v6 ([sp + #68]), v7 ([sp + #72])
      0x000051c7:               89442434    	       mov [esp + 52], eax
      0x000051cb:                 8B0424    	       mov eax, [esp]
      0x000051ce:                 8B4008    	       mov eax, [eax + 8]
      0x000051d1:           8B80CC000000    	       mov eax, [eax + 204]
      0x000051d7:                   85C0    	       test eax, eax
      0x000051d9:           0F847B010000    	       jz/eq +379 (0x0000535a)
      0x000051df:         83B8840000000A    	       cmp [eax + 132], 10
      0x000051e6:           0F8C7F010000    	       jl/nge +383 (0x0000536b)
      0x000051ec:               8B4C2430    	       mov ecx, [esp + 48]
      0x000051f0:               8B542428    	       mov edx, [esp + 40]
      0x000051f4:               8B5C2434    	       mov ebx, [esp + 52]
      0x000051f8:                 8B0424    	       mov eax, [esp]
      0x000051fb:                 8B4004    	       mov eax, [eax + 4]
      0x000051fe:           8B8024010000    	       mov eax, [eax + 292]
      0x00005204:                 FF5024    	       call [eax + 36]
      suspend point dex PC: 0x001f
      GC map objects:  v3 ([sp + #44]), v4 ([sp + #48]), v5 ([sp + #52]), v6 ([sp + #68]), v7 ([sp + #72])
      0x00005207:               8B442428    	       mov eax, [esp + 40]
      0x0000520b:                 8D4801    	       lea ecx, [eax + 1]
      0x0000520e:               894C2428    	       mov [esp + 40], ecx
      0x00005212:     6466833D0000000000    	       cmpw fs:[0x0], 0  ; state_and_flags
      0x0000521b:           0F855B010000    	       jnz/ne +347 (0x0000537c)
      0x00005221:             E93FFFFFFF    	       jmp -193 (0x00005165)
      0x00005226:               8B442428    	       mov eax, [esp + 40]
      0x0000522a:               2B442424    	       sub eax, [esp + 36]
      0x0000522e:               89442434    	       mov [esp + 52], eax
      0x00005232:                 8B0424    	       mov eax, [esp]
      0x00005235:                 8B4008    	       mov eax, [eax + 8]
      0x00005238:           8B80CC000000    	       mov eax, [eax + 204]
      0x0000523e:                   85C0    	       test eax, eax
      0x00005240:           0F8442010000    	       jz/eq +322 (0x00005388)
      0x00005246:         83B8840000000A    	       cmp [eax + 132], 10
      0x0000524d:           0F8C46010000    	       jl/nge +326 (0x00005399)
      0x00005253:               8B4C2448    	       mov ecx, [esp + 72]
      0x00005257:               8B542434    	       mov edx, [esp + 52]
      0x0000525b:                 8B0424    	       mov eax, [esp]
      0x0000525e:                 8B4004    	       mov eax, [eax + 4]
      0x00005261:           8B8018010000    	       mov eax, [eax + 280]
      0x00005267:                 FF5024    	       call [eax + 36]
      suspend point dex PC: 0x0027
      GC map objects:  v3 ([sp + #44]), v4 ([sp + #48]), v6 ([sp + #68]), v7 ([sp + #72])
      0x0000526a:               89442434    	       mov [esp + 52], eax
      0x0000526e:                 8B0424    	       mov eax, [esp]
      0x00005271:                 8B4008    	       mov eax, [eax + 8]
      0x00005274:           8B80CC000000    	       mov eax, [eax + 204]
      0x0000527a:                   85C0    	       test eax, eax
      0x0000527c:           0F8428010000    	       jz/eq +296 (0x000053aa)
      0x00005282:         83B8840000000A    	       cmp [eax + 132], 10
      0x00005289:           0F8C2C010000    	       jl/nge +300 (0x000053bb)
      0x0000528f:               8B4C2430    	       mov ecx, [esp + 48]
      0x00005293:               8B542428    	       mov edx, [esp + 40]
      0x00005297:               8B5C2434    	       mov ebx, [esp + 52]
      0x0000529b:                 8B0424    	       mov eax, [esp]
      0x0000529e:                 8B4004    	       mov eax, [eax + 4]
      0x000052a1:           8B8024010000    	       mov eax, [eax + 292]
      0x000052a7:                 FF5024    	       call [eax + 36]
      suspend point dex PC: 0x002b
      GC map objects:  v3 ([sp + #44]), v4 ([sp + #48]), v5 ([sp + #52]), v6 ([sp + #68]), v7 ([sp + #72])
      0x000052aa:     6466833D0000000000    	       cmpw fs:[0x0], 0  ; state_and_flags
      0x000052b3:           0F8513010000    	       jnz/ne +275 (0x000053cc)
      0x000052b9:             E949FFFFFF    	       jmp -183 (0x00005207)
      0x000052be:               8B442430    	       mov eax, [esp + 48]
      0x000052c2:                 83C43C    	       add esp, 60
      0x000052c5:                     C3    	       ret 
      0x000052c6:         64FF155C020000    	       call fs:[0x25c]  ; pTestSuspend
      suspend point dex PC: 0x0000
      GC map objects:  v6 ([sp + #68]), v7 ([sp + #72])
      0x000052cd:             E98EFDFFFF    	       jmp -626 (0x00005060)
      0x000052d2:             B830000000    	       mov eax, 48
      0x000052d7:         64FF1548010000    	       call fs:[0x148]  ; pInitializeType
      suspend point dex PC: 0x0008
      GC map objects:  v3 ([sp + #44]), v5 ([sp + #52]), v6 ([sp + #68]), v7 ([sp + #72])
      0x000052de:             E9D3FDFFFF    	       jmp -557 (0x000050b6)
      0x000052e3:             B830000000    	       mov eax, 48
      0x000052e8:         64FF1540010000    	       call fs:[0x140]  ; pInitializeStaticStorage
      suspend point dex PC: 0x0008
      GC map objects:  v3 ([sp + #44]), v5 ([sp + #52]), v6 ([sp + #68]), v7 ([sp + #72])
      0x000052ef:             E9CFFDFFFF    	       jmp -561 (0x000050c3)
      0x000052f4:             B830000000    	       mov eax, 48
      0x000052f9:         64FF1548010000    	       call fs:[0x148]  ; pInitializeType
      suspend point dex PC: 0x000c
      GC map objects:  v3 ([sp + #44]), v5 ([sp + #52]), v6 ([sp + #68]), v7 ([sp + #72])
      0x00005300:             E9E9FDFFFF    	       jmp -535 (0x000050ee)
      0x00005305:             B830000000    	       mov eax, 48
      0x0000530a:         64FF1540010000    	       call fs:[0x140]  ; pInitializeStaticStorage
      suspend point dex PC: 0x000c
      GC map objects:  v3 ([sp + #44]), v5 ([sp + #52]), v6 ([sp + #68]), v7 ([sp + #72])
      0x00005311:             E9E5FDFFFF    	       jmp -539 (0x000050fb)
      0x00005316:             B830000000    	       mov eax, 48
      0x0000531b:         64FF1548010000    	       call fs:[0x148]  ; pInitializeType
      suspend point dex PC: 0x0012
      GC map objects:  v3 ([sp + #44]), v6 ([sp + #68]), v7 ([sp + #72])
      0x00005322:             E90EFEFFFF    	       jmp -498 (0x00005135)
      0x00005327:             B830000000    	       mov eax, 48
      0x0000532c:         64FF1540010000    	       call fs:[0x140]  ; pInitializeStaticStorage
      suspend point dex PC: 0x0012
      GC map objects:  v3 ([sp + #44]), v6 ([sp + #68]), v7 ([sp + #72])
      0x00005333:             E90AFEFFFF    	       jmp -502 (0x00005142)
      0x00005338:             B830000000    	       mov eax, 48
      0x0000533d:         64FF1548010000    	       call fs:[0x148]  ; pInitializeType
      suspend point dex PC: 0x001b
      GC map objects:  v3 ([sp + #44]), v4 ([sp + #48]), v6 ([sp + #68]), v7 ([sp + #72])
      0x00005344:             E95AFEFFFF    	       jmp -422 (0x000051a3)
      0x00005349:             B830000000    	       mov eax, 48
      0x0000534e:         64FF1540010000    	       call fs:[0x140]  ; pInitializeStaticStorage
      suspend point dex PC: 0x001b
      GC map objects:  v3 ([sp + #44]), v4 ([sp + #48]), v6 ([sp + #68]), v7 ([sp + #72])
      0x00005355:             E956FEFFFF    	       jmp -426 (0x000051b0)
      0x0000535a:             B830000000    	       mov eax, 48
      0x0000535f:         64FF1548010000    	       call fs:[0x148]  ; pInitializeType
      suspend point dex PC: 0x001f
      GC map objects:  v3 ([sp + #44]), v4 ([sp + #48]), v5 ([sp + #52]), v6 ([sp + #68]), v7 ([sp + #72])
      0x00005366:             E974FEFFFF    	       jmp -396 (0x000051df)
      0x0000536b:             B830000000    	       mov eax, 48
      0x00005370:         64FF1540010000    	       call fs:[0x140]  ; pInitializeStaticStorage
      suspend point dex PC: 0x001f
      GC map objects:  v3 ([sp + #44]), v4 ([sp + #48]), v5 ([sp + #52]), v6 ([sp + #68]), v7 ([sp + #72])
      0x00005377:             E970FEFFFF    	       jmp -400 (0x000051ec)
      0x0000537c:         64FF155C020000    	       call fs:[0x25c]  ; pTestSuspend
      suspend point dex PC: 0x0024
      GC map objects:  v3 ([sp + #44]), v4 ([sp + #48]), v5 ([sp + #52]), v6 ([sp + #68]), v7 ([sp + #72])
      0x00005383:             E999FEFFFF    	       jmp -359 (0x00005221)
      0x00005388:             B830000000    	       mov eax, 48
      0x0000538d:         64FF1548010000    	       call fs:[0x148]  ; pInitializeType
      suspend point dex PC: 0x0027
      GC map objects:  v3 ([sp + #44]), v4 ([sp + #48]), v6 ([sp + #68]), v7 ([sp + #72])
      0x00005394:             E9ADFEFFFF    	       jmp -339 (0x00005246)
      0x00005399:             B830000000    	       mov eax, 48
      0x0000539e:         64FF1540010000    	       call fs:[0x140]  ; pInitializeStaticStorage
      suspend point dex PC: 0x0027
      GC map objects:  v3 ([sp + #44]), v4 ([sp + #48]), v6 ([sp + #68]), v7 ([sp + #72])
      0x000053a5:             E9A9FEFFFF    	       jmp -343 (0x00005253)
      0x000053aa:             B830000000    	       mov eax, 48
      0x000053af:         64FF1548010000    	       call fs:[0x148]  ; pInitializeType
      suspend point dex PC: 0x002b
      GC map objects:  v3 ([sp + #44]), v4 ([sp + #48]), v5 ([sp + #52]), v6 ([sp + #68]), v7 ([sp + #72])
      0x000053b6:             E9C7FEFFFF    	       jmp -313 (0x00005282)
      0x000053bb:             B830000000    	       mov eax, 48
      0x000053c0:         64FF1540010000    	       call fs:[0x140]  ; pInitializeStaticStorage
      suspend point dex PC: 0x002b
      GC map objects:  v3 ([sp + #44]), v4 ([sp + #48]), v5 ([sp + #52]), v6 ([sp + #68]), v7 ([sp + #72])
      0x000053c7:             E9C3FEFFFF    	       jmp -317 (0x0000528f)
      0x000053cc:         64FF155C020000    	       call fs:[0x25c]  ; pTestSuspend
      suspend point dex PC: 0x002e
      GC map objects:  v3 ([sp + #44]), v4 ([sp + #48]), v5 ([sp + #52]), v6 ([sp + #68]), v7 ([sp + #72])
      0x000053d3:             E9E1FEFFFF    	       jmp -287 (0x000052b9)
  2: void com.ljj.patch.util.DexUtils.inject(android.content.Context, java.lang.String) (dex_method_idx=35)
    DEX CODE:
      0x0000: 1a0a 7500                	| const-string v10, "dalvik.system.BaseDexClassLoader" // string@117
      0x0002: 7110 3600 0a00           	| invoke-static {v10}, java.lang.Class java.lang.Class.forName(java.lang.String) // method@54
      0x0005: 0c00                     	| move-result-object v0
      0x0006: 1c0a 1900                	| const-class v10, com.ljj.patch.util.DexUtils // type@25
      0x0008: 6e10 3700 0a00           	| invoke-virtual {v10}, java.lang.ClassLoader java.lang.Class.getClassLoader() // method@55
      0x000b: 0c0a                     	| move-result-object v10
      0x000c: 1a0b b000                	| const-string v11, "pathList" // string@176
      0x000e: 7130 2800 a00b           	| invoke-static {v0, v10, v11}, java.lang.Object com.ljj.patch.util.ReflectionUtils.getField(java.lang.Class, java.lang.Object, java.lang.String) // method@40
      0x0011: 0c08                     	| move-result-object v8
      0x0012: 6e10 3e00 0800           	| invoke-virtual {v8}, java.lang.Class java.lang.Object.getClass() // method@62
      0x0015: 0c0a                     	| move-result-object v10
      0x0016: 1a0b 7900                	| const-string v11, "dexElements" // string@121
      0x0018: 7130 2800 8a0b           	| invoke-static {v10, v8, v11}, java.lang.Object com.ljj.patch.util.ReflectionUtils.getField(java.lang.Class, java.lang.Object, java.lang.String) // method@40
      0x001b: 0c07                     	| move-result-object v7
      0x001c: 1a0a a800                	| const-string v10, "odex" // string@168
      0x001e: 120b                     	| const/4 v11, #+0
      0x001f: 6e30 0500 ad0b           	| invoke-virtual {v13, v10, v11}, java.io.File android.content.Context.getDir(java.lang.String, int) // method@5
      0x0022: 0c0a                     	| move-result-object v10
      0x0023: 6e10 2e00 0a00           	| invoke-virtual {v10}, java.lang.String java.io.File.getAbsolutePath() // method@46
      0x0026: 0c03                     	| move-result-object v3
      0x0027: 2202 2100                	| new-instance v2, dalvik.system.DexClassLoader // type@33
      0x0029: 1c0a 1900                	| const-class v10, com.ljj.patch.util.DexUtils // type@25
      0x002b: 6e10 3700 0a00           	| invoke-virtual {v10}, java.lang.ClassLoader java.lang.Class.getClassLoader() // method@55
      0x002e: 0c0a                     	| move-result-object v10
      0x002f: 705a 2a00 e233           	| invoke-direct {v2, v14, v3, v3, v10}, void dalvik.system.DexClassLoader.<init>(java.lang.String, java.lang.String, java.lang.String, java.lang.ClassLoader) // method@42
      0x0032: 1a0a b000                	| const-string v10, "pathList" // string@176
      0x0034: 7130 2800 200a           	| invoke-static {v0, v2, v10}, java.lang.Object com.ljj.patch.util.ReflectionUtils.getField(java.lang.Class, java.lang.Object, java.lang.String) // method@40
      0x0037: 0c09                     	| move-result-object v9
      0x0038: 6e10 3e00 0900           	| invoke-virtual {v9}, java.lang.Class java.lang.Object.getClass() // method@62
      0x003b: 0c0a                     	| move-result-object v10
      0x003c: 1a0b 7900                	| const-string v11, "dexElements" // string@121
      0x003e: 7130 2800 9a0b           	| invoke-static {v10, v9, v11}, java.lang.Object com.ljj.patch.util.ReflectionUtils.getField(java.lang.Class, java.lang.Object, java.lang.String) // method@40
      0x0041: 0c05                     	| move-result-object v5
      0x0042: 7120 2200 7500           	| invoke-static {v5, v7}, java.lang.Object com.ljj.patch.util.DexUtils.combineArray(java.lang.Object, java.lang.Object) // method@34
      0x0045: 0c01                     	| move-result-object v1
      0x0046: 6e10 3e00 0800           	| invoke-virtual {v8}, java.lang.Class java.lang.Object.getClass() // method@62
      0x0049: 0c0a                     	| move-result-object v10
      0x004a: 1a0b 7900                	| const-string v11, "dexElements" // string@121
      0x004c: 7140 2900 8a1b           	| invoke-static {v10, v8, v11, v1}, void com.ljj.patch.util.ReflectionUtils.setFeild(java.lang.Class, java.lang.Object, java.lang.String, java.lang.Object) // method@41
      0x004f: 6e10 3e00 0800           	| invoke-virtual {v8}, java.lang.Class java.lang.Object.getClass() // method@62
      0x0052: 0c0a                     	| move-result-object v10
      0x0053: 1a0b 7900                	| const-string v11, "dexElements" // string@121
      0x0055: 7130 2800 8a0b           	| invoke-static {v10, v8, v11}, java.lang.Object com.ljj.patch.util.ReflectionUtils.getField(java.lang.Class, java.lang.Object, java.lang.String) // method@40
      0x0058: 0c06                     	| move-result-object v6
      0x0059: 1a0a 9f00                	| const-string v10, "ljj" // string@159
      0x005b: 220b 2f00                	| new-instance v11, java.lang.StringBuilder // type@47
      0x005d: 7010 3f00 0b00           	| invoke-direct {v11}, void java.lang.StringBuilder.<init>() // method@63
      0x0060: 1a0c 9b00                	| const-string v12, "inject->length: " // string@155
      0x0062: 6e20 4100 cb00           	| invoke-virtual {v11, v12}, java.lang.StringBuilder java.lang.StringBuilder.append(java.lang.String) // method@65
      0x0065: 0c0b                     	| move-result-object v11
      0x0066: 7110 4400 0600           	| invoke-static {v6}, int java.lang.reflect.Array.getLength(java.lang.Object) // method@68
      0x0069: 0a0c                     	| move-result v12
      0x006a: 6e20 4000 cb00           	| invoke-virtual {v11, v12}, java.lang.StringBuilder java.lang.StringBuilder.append(int) // method@64
      0x006d: 0c0b                     	| move-result-object v11
      0x006e: 6e10 4200 0b00           	| invoke-virtual {v11}, java.lang.String java.lang.StringBuilder.toString() // method@66
      0x0071: 0c0b                     	| move-result-object v11
      0x0072: 7120 0800 ba00           	| invoke-static {v10, v11}, int android.util.Log.i(java.lang.String, java.lang.String) // method@8
      0x0075: 0e00                     	| return-void
      0x0076: 0d04                     	| move-exception v4
      0x0077: 6e10 3a00 0400           	| invoke-virtual {v4}, void java.lang.ClassNotFoundException.printStackTrace() // method@58
      0x007a: 28fb                     	| goto -5
      0x007b: 0d04                     	| move-exception v4
      0x007c: 6e10 3b00 0400           	| invoke-virtual {v4}, void java.lang.IllegalAccessException.printStackTrace() // method@59
      0x007f: 28f6                     	| goto -10
      0x0080: 0d04                     	| move-exception v4
      0x0081: 6e10 3c00 0400           	| invoke-virtual {v4}, void java.lang.NoSuchFieldException.printStackTrace() // method@60
      0x0084: 28f1                     	| goto -15
    OatMethodOffsets (offset=0x00002d4c)
      code_offset: 0x000053fc 
      gc_map: (offset=0x00002f1c)
    OatQuickMethodHeader (offset=0x000053e0)
      mapping_table: (offset=0x00003200)
      vmap_table: (offset=0x00003320)
      v65535/r8
    QuickMethodFrameInfo
      frame_size_in_bytes: 96
      core_spill_mask: 0x00000100 (r8)
      fp_spill_mask: 0x00000000 
      vr_stack_locations:
      	locals: v0[sp + #36] v1[sp + #40] v2[sp + #44] v3[sp + #48] v4[sp + #52] v5[sp + #56] v6[sp + #60] v7[sp + #64] v8[sp + #68] v9[sp + #72] v10[sp + #76] v11[sp + #80] v12[sp + #84]
      	ins: v13[sp + #100] v14[sp + #104]
      	method*: v15[sp + #0]
      	outs: v0[sp + #4] v1[sp + #8] v2[sp + #12] v3[sp + #16] v4[sp + #20]
    CODE: (code_offset=0x000053fc size_offset=0x000053f8 size=2014)...
      0x000053fc:         85842400E0FFFF    	       test eax, [esp + -8192]
      suspend point dex PC: 0x0000
      GC map objects:  v13 ([sp + #100]), v14 ([sp + #104])
      0x00005403:                 83EC5C    	       sub esp, 92
      0x00005406:                 890424    	       mov [esp], eax
      0x00005409:               894C2464    	       mov [esp + 100], ecx
      0x0000540d:               89542468    	       mov [esp + 104], edx
      0x00005411:     6466833D0000000000    	       cmpw fs:[0x0], 0  ; state_and_flags
      0x0000541a:           0F85D2050000    	       jnz/ne +1490 (0x000059f2)
      0x00005420:                 8B0424    	       mov eax, [esp]
      0x00005423:                   8B00    	       mov eax, [eax]
      0x00005425:                 8B4014    	       mov eax, [eax + 20]
      0x00005428:           8B80E0010000    	       mov eax, [eax + 480]
      0x0000542e:                   85C0    	       test eax, eax
      0x00005430:           0F84C8050000    	       jz/eq +1480 (0x000059fe)
      0x00005436:               8944244C    	       mov [esp + 76], eax
      0x0000543a:                 8B0424    	       mov eax, [esp]
      0x0000543d:                 8B4008    	       mov eax, [eax + 8]
      0x00005440:           8B80AC000000    	       mov eax, [eax + 172]
      0x00005446:                   85C0    	       test eax, eax
      0x00005448:           0F84C1050000    	       jz/eq +1473 (0x00005a0f)
      0x0000544e:         83B8840000000A    	       cmp [eax + 132], 10
      0x00005455:           0F8CC5050000    	       jl/nge +1477 (0x00005a20)
      0x0000545b:               8B4C244C    	       mov ecx, [esp + 76]
      0x0000545f:                 8B0424    	       mov eax, [esp]
      0x00005462:                 8B4004    	       mov eax, [eax + 4]
      0x00005465:           8B80E4000000    	       mov eax, [eax + 228]
      0x0000546b:                 FF5024    	       call [eax + 36]
      suspend point dex PC: 0x0002
      GC map objects:  v10 ([sp + #76]), v13 ([sp + #100]), v14 ([sp + #104])
      0x0000546e:               89442424    	       mov [esp + 36], eax
      0x00005472:                 8B0424    	       mov eax, [esp]
      0x00005475:                   8B00    	       mov eax, [eax]
      0x00005477:               8944244C    	       mov [esp + 76], eax
      0x0000547b:               8B44244C    	       mov eax, [esp + 76]
      0x0000547f:                   8500    	       test eax, [eax]
      suspend point dex PC: 0x0008
      GC map objects:  v0 ([sp + #36]), v10 ([sp + #76]), v13 ([sp + #100]), v14 ([sp + #104])
      0x00005481:               89442420    	       mov [esp + 32], eax
      0x00005485:               8B4C2420    	       mov ecx, [esp + 32]
      0x00005489:                 8B0424    	       mov eax, [esp]
      0x0000548c:                 8B4004    	       mov eax, [eax + 4]
      0x0000548f:           8B80E8000000    	       mov eax, [eax + 232]
      0x00005495:                 FF5024    	       call [eax + 36]
      suspend point dex PC: 0x0008
      GC map objects:  v0 ([sp + #36]), v10 ([sp + #76]), v13 ([sp + #100]), v14 ([sp + #104])
      0x00005498:               8944244C    	       mov [esp + 76], eax
      0x0000549c:                 8B0424    	       mov eax, [esp]
      0x0000549f:                   8B00    	       mov eax, [eax]
      0x000054a1:                 8B4014    	       mov eax, [eax + 20]
      0x000054a4:           8B80CC020000    	       mov eax, [eax + 716]
      0x000054aa:                   85C0    	       test eax, eax
      0x000054ac:           0F847F050000    	       jz/eq +1407 (0x00005a31)
      0x000054b2:               89442450    	       mov [esp + 80], eax
      0x000054b6:                 8B0424    	       mov eax, [esp]
      0x000054b9:                 8B4008    	       mov eax, [eax + 8]
      0x000054bc:                 8B4078    	       mov eax, [eax + 120]
      0x000054bf:                   85C0    	       test eax, eax
      0x000054c1:           0F847B050000    	       jz/eq +1403 (0x00005a42)
      0x000054c7:         83B8840000000A    	       cmp [eax + 132], 10
      0x000054ce:           0F8C7F050000    	       jl/nge +1407 (0x00005a53)
      0x000054d4:               8B4C2424    	       mov ecx, [esp + 36]
      0x000054d8:               8B54244C    	       mov edx, [esp + 76]
      0x000054dc:               8B5C2450    	       mov ebx, [esp + 80]
      0x000054e0:                 8B0424    	       mov eax, [esp]
      0x000054e3:                 8B4004    	       mov eax, [eax + 4]
      0x000054e6:           8B80AC000000    	       mov eax, [eax + 172]
      0x000054ec:                 FF5024    	       call [eax + 36]
      suspend point dex PC: 0x000e
      GC map objects:  v0 ([sp + #36]), v10 ([sp + #76]), v11 ([sp + #80]), v13 ([sp + #100]), v14 ([sp + #104])
      0x000054ef:               89442444    	       mov [esp + 68], eax
      0x000054f3:               8B442444    	       mov eax, [esp + 68]
      0x000054f7:                   8500    	       test eax, [eax]
      suspend point dex PC: 0x0012
      GC map objects:  v0 ([sp + #36]), v8 ([sp + #68]), v10 ([sp + #76]), v11 ([sp + #80]), v13 ([sp + #100]), v14 ([sp + #104])
      0x000054f9:               89442420    	       mov [esp + 32], eax
      0x000054fd:               8B4C2420    	       mov ecx, [esp + 32]
      0x00005501:                 8B0424    	       mov eax, [esp]
      0x00005504:                 8B4004    	       mov eax, [eax + 4]
      0x00005507:           8B8004010000    	       mov eax, [eax + 260]
      0x0000550d:                 FF5024    	       call [eax + 36]
      suspend point dex PC: 0x0012
      GC map objects:  v0 ([sp + #36]), v8 ([sp + #68]), v10 ([sp + #76]), v11 ([sp + #80]), v13 ([sp + #100]), v14 ([sp + #104])
      0x00005510:               8944244C    	       mov [esp + 76], eax
      0x00005514:                 8B0424    	       mov eax, [esp]
      0x00005517:                   8B00    	       mov eax, [eax]
      0x00005519:                 8B4014    	       mov eax, [eax + 20]
      0x0000551c:           8B80F0010000    	       mov eax, [eax + 496]
      0x00005522:                   85C0    	       test eax, eax
      0x00005524:           0F843A050000    	       jz/eq +1338 (0x00005a64)
      0x0000552a:               89442450    	       mov [esp + 80], eax
      0x0000552e:                 8B0424    	       mov eax, [esp]
      0x00005531:                 8B4008    	       mov eax, [eax + 8]
      0x00005534:                 8B4078    	       mov eax, [eax + 120]
      0x00005537:                   85C0    	       test eax, eax
      0x00005539:           0F8436050000    	       jz/eq +1334 (0x00005a75)
      0x0000553f:         83B8840000000A    	       cmp [eax + 132], 10
      0x00005546:           0F8C3A050000    	       jl/nge +1338 (0x00005a86)
      0x0000554c:               8B4C244C    	       mov ecx, [esp + 76]
      0x00005550:               8B542444    	       mov edx, [esp + 68]
      0x00005554:               8B5C2450    	       mov ebx, [esp + 80]
      0x00005558:                 8B0424    	       mov eax, [esp]
      0x0000555b:                 8B4004    	       mov eax, [eax + 4]
      0x0000555e:           8B80AC000000    	       mov eax, [eax + 172]
      0x00005564:                 FF5024    	       call [eax + 36]
      suspend point dex PC: 0x0018
      GC map objects:  v0 ([sp + #36]), v8 ([sp + #68]), v10 ([sp + #76]), v11 ([sp + #80]), v13 ([sp + #100]), v14 ([sp + #104])
      0x00005567:               89442440    	       mov [esp + 64], eax
      0x0000556b:                 8B0424    	       mov eax, [esp]
      0x0000556e:                   8B00    	       mov eax, [eax]
      0x00005570:                 8B4014    	       mov eax, [eax + 20]
      0x00005573:           8B80AC020000    	       mov eax, [eax + 684]
      0x00005579:                   85C0    	       test eax, eax
      0x0000557b:           0F8416050000    	       jz/eq +1302 (0x00005a97)
      0x00005581:               8944244C    	       mov [esp + 76], eax
      0x00005585:       C744245000000000    	       mov [esp + 80], 0
      0x0000558d:               8B442464    	       mov eax, [esp + 100]
      0x00005591:                   8500    	       test eax, [eax]
      suspend point dex PC: 0x001f
      GC map objects:  v0 ([sp + #36]), v7 ([sp + #64]), v8 ([sp + #68]), v10 ([sp + #76]), v13 ([sp + #100]), v14 ([sp + #104])
      0x00005593:               89442420    	       mov [esp + 32], eax
      0x00005597:               8B4C2420    	       mov ecx, [esp + 32]
      0x0000559b:               8B54244C    	       mov edx, [esp + 76]
      0x0000559f:               8B5C2450    	       mov ebx, [esp + 80]
      0x000055a3:                   8B01    	       mov eax, [ecx]
      0x000055a5:           8B805C020000    	       mov eax, [eax + 604]
      0x000055ab:                 FF5024    	       call [eax + 36]
      suspend point dex PC: 0x001f
      GC map objects:  v0 ([sp + #36]), v7 ([sp + #64]), v8 ([sp + #68]), v10 ([sp + #76]), v13 ([sp + #100]), v14 ([sp + #104])
      0x000055ae:               8944244C    	       mov [esp + 76], eax
      0x000055b2:               8B44244C    	       mov eax, [esp + 76]
      0x000055b6:                   8500    	       test eax, [eax]
      suspend point dex PC: 0x0023
      GC map objects:  v0 ([sp + #36]), v7 ([sp + #64]), v8 ([sp + #68]), v10 ([sp + #76]), v13 ([sp + #100]), v14 ([sp + #104])
      0x000055b8:               89442420    	       mov [esp + 32], eax
      0x000055bc:               8B4C2420    	       mov ecx, [esp + 32]
      0x000055c0:                   8B01    	       mov eax, [ecx]
      0x000055c2:           8B80E0010000    	       mov eax, [eax + 480]
      0x000055c8:                 FF5024    	       call [eax + 36]
      suspend point dex PC: 0x0023
      GC map objects:  v0 ([sp + #36]), v7 ([sp + #64]), v8 ([sp + #68]), v10 ([sp + #76]), v13 ([sp + #100]), v14 ([sp + #104])
      0x000055cb:               89442430    	       mov [esp + 48], eax
      0x000055cf:                 8B0C24    	       mov ecx, [esp]
      0x000055d2:             B821000000    	       mov eax, 33
      0x000055d7:         64FF1514010000    	       call fs:[0x114]  ; pAllocObject
      suspend point dex PC: 0x0027
      GC map objects:  v0 ([sp + #36]), v3 ([sp + #48]), v7 ([sp + #64]), v8 ([sp + #68]), v10 ([sp + #76]), v13 ([sp + #100]), v14 ([sp + #104])
      0x000055de:               8944242C    	       mov [esp + 44], eax
      0x000055e2:                 8B0424    	       mov eax, [esp]
      0x000055e5:                   8B00    	       mov eax, [eax]
      0x000055e7:               8944244C    	       mov [esp + 76], eax
      0x000055eb:               8B44244C    	       mov eax, [esp + 76]
      0x000055ef:                   8500    	       test eax, [eax]
      suspend point dex PC: 0x002b
      GC map objects:  v0 ([sp + #36]), v2 ([sp + #44]), v3 ([sp + #48]), v7 ([sp + #64]), v8 ([sp + #68]), v10 ([sp + #76]), v13 ([sp + #100]), v14 ([sp + #104])
      0x000055f1:               89442420    	       mov [esp + 32], eax
      0x000055f5:               8B4C2420    	       mov ecx, [esp + 32]
      0x000055f9:                 8B0424    	       mov eax, [esp]
      0x000055fc:                 8B4004    	       mov eax, [eax + 4]
      0x000055ff:           8B80E8000000    	       mov eax, [eax + 232]
      0x00005605:                 FF5024    	       call [eax + 36]
      suspend point dex PC: 0x002b
      GC map objects:  v0 ([sp + #36]), v2 ([sp + #44]), v3 ([sp + #48]), v7 ([sp + #64]), v8 ([sp + #68]), v10 ([sp + #76]), v13 ([sp + #100]), v14 ([sp + #104])
      0x00005608:               8944244C    	       mov [esp + 76], eax
      0x0000560c:               8B44242C    	       mov eax, [esp + 44]
      0x00005610:                   8500    	       test eax, [eax]
      suspend point dex PC: 0x002f
      GC map objects:  v0 ([sp + #36]), v2 ([sp + #44]), v3 ([sp + #48]), v7 ([sp + #64]), v8 ([sp + #68]), v10 ([sp + #76]), v13 ([sp + #100]), v14 ([sp + #104])
      0x00005612:               89442420    	       mov [esp + 32], eax
      0x00005616:               8B4C2420    	       mov ecx, [esp + 32]
      0x0000561a:               8B542468    	       mov edx, [esp + 104]
      0x0000561e:               8B5C2430    	       mov ebx, [esp + 48]
      0x00005622:               FF742430    	       push [esp + 48]
      0x00005626:               8F442410    	       pop [esp + 16]
      0x0000562a:               FF74244C    	       push [esp + 76]
      0x0000562e:               8F442414    	       pop [esp + 20]
      0x00005632:                 8B0424    	       mov eax, [esp]
      0x00005635:                 8B4004    	       mov eax, [eax + 4]
      0x00005638:           8B80B4000000    	       mov eax, [eax + 180]
      0x0000563e:                 FF5024    	       call [eax + 36]
      suspend point dex PC: 0x002f
      GC map objects:  v0 ([sp + #36]), v2 ([sp + #44]), v3 ([sp + #48]), v7 ([sp + #64]), v8 ([sp + #68]), v10 ([sp + #76]), v13 ([sp + #100]), v14 ([sp + #104])
      0x00005641:                 8B0424    	       mov eax, [esp]
      0x00005644:                   8B00    	       mov eax, [eax]
      0x00005646:                 8B4014    	       mov eax, [eax + 20]
      0x00005649:           8B80CC020000    	       mov eax, [eax + 716]
      0x0000564f:                   85C0    	       test eax, eax
      0x00005651:           0F8451040000    	       jz/eq +1105 (0x00005aa8)
      0x00005657:               8944244C    	       mov [esp + 76], eax
      0x0000565b:                 8B0424    	       mov eax, [esp]
      0x0000565e:                 8B4008    	       mov eax, [eax + 8]
      0x00005661:                 8B4078    	       mov eax, [eax + 120]
      0x00005664:                   85C0    	       test eax, eax
      0x00005666:           0F844D040000    	       jz/eq +1101 (0x00005ab9)
      0x0000566c:         83B8840000000A    	       cmp [eax + 132], 10
      0x00005673:           0F8C51040000    	       jl/nge +1105 (0x00005aca)
      0x00005679:               8B4C2424    	       mov ecx, [esp + 36]
      0x0000567d:               8B54242C    	       mov edx, [esp + 44]
      0x00005681:               8B5C244C    	       mov ebx, [esp + 76]
      0x00005685:                 8B0424    	       mov eax, [esp]
      0x00005688:                 8B4004    	       mov eax, [eax + 4]
      0x0000568b:           8B80AC000000    	       mov eax, [eax + 172]
      0x00005691:                 FF5024    	       call [eax + 36]
      suspend point dex PC: 0x0034
      GC map objects:  v0 ([sp + #36]), v2 ([sp + #44]), v3 ([sp + #48]), v7 ([sp + #64]), v8 ([sp + #68]), v10 ([sp + #76]), v13 ([sp + #100]), v14 ([sp + #104])
      0x00005694:               89442448    	       mov [esp + 72], eax
      0x00005698:               8B442448    	       mov eax, [esp + 72]
      0x0000569c:                   8500    	       test eax, [eax]
      suspend point dex PC: 0x0038
      GC map objects:  v0 ([sp + #36]), v2 ([sp + #44]), v3 ([sp + #48]), v7 ([sp + #64]), v8 ([sp + #68]), v9 ([sp + #72]), v10 ([sp + #76]), v13 ([sp + #100]), v14 ([sp + #104])
      0x0000569e:               89442420    	       mov [esp + 32], eax
      0x000056a2:               8B4C2420    	       mov ecx, [esp + 32]
      0x000056a6:                 8B0424    	       mov eax, [esp]
      0x000056a9:                 8B4004    	       mov eax, [eax + 4]
      0x000056ac:           8B8004010000    	       mov eax, [eax + 260]
      0x000056b2:                 FF5024    	       call [eax + 36]
      suspend point dex PC: 0x0038
      GC map objects:  v0 ([sp + #36]), v2 ([sp + #44]), v3 ([sp + #48]), v7 ([sp + #64]), v8 ([sp + #68]), v9 ([sp + #72]), v10 ([sp + #76]), v13 ([sp + #100]), v14 ([sp + #104])
      0x000056b5:               8944244C    	       mov [esp + 76], eax
      0x000056b9:                 8B0424    	       mov eax, [esp]
      0x000056bc:                   8B00    	       mov eax, [eax]
      0x000056be:                 8B4014    	       mov eax, [eax + 20]
      0x000056c1:           8B80F0010000    	       mov eax, [eax + 496]
      0x000056c7:                   85C0    	       test eax, eax
      0x000056c9:           0F840C040000    	       jz/eq +1036 (0x00005adb)
      0x000056cf:               89442450    	       mov [esp + 80], eax
      0x000056d3:                 8B0424    	       mov eax, [esp]
      0x000056d6:                 8B4008    	       mov eax, [eax + 8]
      0x000056d9:                 8B4078    	       mov eax, [eax + 120]
      0x000056dc:                   85C0    	       test eax, eax
      0x000056de:           0F8408040000    	       jz/eq +1032 (0x00005aec)
      0x000056e4:         83B8840000000A    	       cmp [eax + 132], 10
      0x000056eb:           0F8C0C040000    	       jl/nge +1036 (0x00005afd)
      0x000056f1:               8B4C244C    	       mov ecx, [esp + 76]
      0x000056f5:               8B542448    	       mov edx, [esp + 72]
      0x000056f9:               8B5C2450    	       mov ebx, [esp + 80]
      0x000056fd:                 8B0424    	       mov eax, [esp]
      0x00005700:                 8B4004    	       mov eax, [eax + 4]
      0x00005703:           8B80AC000000    	       mov eax, [eax + 172]
      0x00005709:                 FF5024    	       call [eax + 36]
      suspend point dex PC: 0x003e
      GC map objects:  v0 ([sp + #36]), v2 ([sp + #44]), v3 ([sp + #48]), v7 ([sp + #64]), v8 ([sp + #68]), v9 ([sp + #72]), v10 ([sp + #76]), v11 ([sp + #80]), v13 ([sp + #100]), v14 ([sp + #104])
      0x0000570c:               89442438    	       mov [esp + 56], eax
      0x00005710:               8B4C2438    	       mov ecx, [esp + 56]
      0x00005714:               8B542440    	       mov edx, [esp + 64]
      0x00005718:                 8B0424    	       mov eax, [esp]
      0x0000571b:                 8B4004    	       mov eax, [eax + 4]
      0x0000571e:           8B8094000000    	       mov eax, [eax + 148]
      0x00005724:                 FF5024    	       call [eax + 36]
      suspend point dex PC: 0x0042
      GC map objects:  v0 ([sp + #36]), v2 ([sp + #44]), v3 ([sp + #48]), v5 ([sp + #56]), v7 ([sp + #64]), v8 ([sp + #68]), v9 ([sp + #72]), v10 ([sp + #76]), v11 ([sp + #80]), v13 ([sp + #100]), v14 ([sp + #104])
      0x00005727:               89442428    	       mov [esp + 40], eax
      0x0000572b:               8B442444    	       mov eax, [esp + 68]
      0x0000572f:                   8500    	       test eax, [eax]
      suspend point dex PC: 0x0046
      GC map objects:  v0 ([sp + #36]), v1 ([sp + #40]), v2 ([sp + #44]), v3 ([sp + #48]), v5 ([sp + #56]), v7 ([sp + #64]), v8 ([sp + #68]), v9 ([sp + #72]), v10 ([sp + #76]), v11 ([sp + #80]), v13 ([sp + #100]), v14 ([sp + #104])
      0x00005731:               89442420    	       mov [esp + 32], eax
      0x00005735:               8B4C2420    	       mov ecx, [esp + 32]
      0x00005739:                 8B0424    	       mov eax, [esp]
      0x0000573c:                 8B4004    	       mov eax, [eax + 4]
      0x0000573f:           8B8004010000    	       mov eax, [eax + 260]
      0x00005745:                 FF5024    	       call [eax + 36]
      suspend point dex PC: 0x0046
      GC map objects:  v0 ([sp + #36]), v1 ([sp + #40]), v2 ([sp + #44]), v3 ([sp + #48]), v5 ([sp + #56]), v7 ([sp + #64]), v8 ([sp + #68]), v9 ([sp + #72]), v10 ([sp + #76]), v11 ([sp + #80]), v13 ([sp + #100]), v14 ([sp + #104])
      0x00005748:               8944244C    	       mov [esp + 76], eax
      0x0000574c:                 8B0424    	       mov eax, [esp]
      0x0000574f:                   8B00    	       mov eax, [eax]
      0x00005751:                 8B4014    	       mov eax, [eax + 20]
      0x00005754:           8B80F0010000    	       mov eax, [eax + 496]
      0x0000575a:                   85C0    	       test eax, eax
      0x0000575c:           0F84AC030000    	       jz/eq +940 (0x00005b0e)
      0x00005762:               89442450    	       mov [esp + 80], eax
      0x00005766:                 8B0424    	       mov eax, [esp]
      0x00005769:                 8B4008    	       mov eax, [eax + 8]
      0x0000576c:                 8B4078    	       mov eax, [eax + 120]
      0x0000576f:                   85C0    	       test eax, eax
      0x00005771:           0F84A8030000    	       jz/eq +936 (0x00005b1f)
      0x00005777:         83B8840000000A    	       cmp [eax + 132], 10
      0x0000577e:           0F8CAC030000    	       jl/nge +940 (0x00005b30)
      0x00005784:               8B4C244C    	       mov ecx, [esp + 76]
      0x00005788:               8B542444    	       mov edx, [esp + 68]
      0x0000578c:               8B5C2450    	       mov ebx, [esp + 80]
      0x00005790:               FF742428    	       push [esp + 40]
      0x00005794:               8F442410    	       pop [esp + 16]
      0x00005798:                 8B0424    	       mov eax, [esp]
      0x0000579b:                 8B4004    	       mov eax, [eax + 4]
      0x0000579e:           8B80B0000000    	       mov eax, [eax + 176]
      0x000057a4:                 FF5024    	       call [eax + 36]
      suspend point dex PC: 0x004c
      GC map objects:  v0 ([sp + #36]), v1 ([sp + #40]), v2 ([sp + #44]), v3 ([sp + #48]), v5 ([sp + #56]), v7 ([sp + #64]), v8 ([sp + #68]), v9 ([sp + #72]), v10 ([sp + #76]), v11 ([sp + #80]), v13 ([sp + #100]), v14 ([sp + #104])
      0x000057a7:               8B442444    	       mov eax, [esp + 68]
      0x000057ab:                   8500    	       test eax, [eax]
      suspend point dex PC: 0x004f
      GC map objects:  v0 ([sp + #36]), v1 ([sp + #40]), v2 ([sp + #44]), v3 ([sp + #48]), v5 ([sp + #56]), v7 ([sp + #64]), v8 ([sp + #68]), v9 ([sp + #72]), v10 ([sp + #76]), v11 ([sp + #80]), v13 ([sp + #100]), v14 ([sp + #104])
      0x000057ad:               89442420    	       mov [esp + 32], eax
      0x000057b1:               8B4C2420    	       mov ecx, [esp + 32]
      0x000057b5:                 8B0424    	       mov eax, [esp]
      0x000057b8:                 8B4004    	       mov eax, [eax + 4]
      0x000057bb:           8B8004010000    	       mov eax, [eax + 260]
      0x000057c1:                 FF5024    	       call [eax + 36]
      suspend point dex PC: 0x004f
      GC map objects:  v0 ([sp + #36]), v1 ([sp + #40]), v2 ([sp + #44]), v3 ([sp + #48]), v5 ([sp + #56]), v7 ([sp + #64]), v8 ([sp + #68]), v9 ([sp + #72]), v10 ([sp + #76]), v11 ([sp + #80]), v13 ([sp + #100]), v14 ([sp + #104])
      0x000057c4:               8944244C    	       mov [esp + 76], eax
      0x000057c8:                 8B0424    	       mov eax, [esp]
      0x000057cb:                   8B00    	       mov eax, [eax]
      0x000057cd:                 8B4014    	       mov eax, [eax + 20]
      0x000057d0:           8B80F0010000    	       mov eax, [eax + 496]
      0x000057d6:                   85C0    	       test eax, eax
      0x000057d8:           0F8463030000    	       jz/eq +867 (0x00005b41)
      0x000057de:               89442450    	       mov [esp + 80], eax
      0x000057e2:                 8B0424    	       mov eax, [esp]
      0x000057e5:                 8B4008    	       mov eax, [eax + 8]
      0x000057e8:                 8B4078    	       mov eax, [eax + 120]
      0x000057eb:                   85C0    	       test eax, eax
      0x000057ed:           0F845F030000    	       jz/eq +863 (0x00005b52)
      0x000057f3:         83B8840000000A    	       cmp [eax + 132], 10
      0x000057fa:           0F8C63030000    	       jl/nge +867 (0x00005b63)
      0x00005800:               8B4C244C    	       mov ecx, [esp + 76]
      0x00005804:               8B542444    	       mov edx, [esp + 68]
      0x00005808:               8B5C2450    	       mov ebx, [esp + 80]
      0x0000580c:                 8B0424    	       mov eax, [esp]
      0x0000580f:                 8B4004    	       mov eax, [eax + 4]
      0x00005812:           8B80AC000000    	       mov eax, [eax + 172]
      0x00005818:                 FF5024    	       call [eax + 36]
      suspend point dex PC: 0x0055
      GC map objects:  v0 ([sp + #36]), v1 ([sp + #40]), v2 ([sp + #44]), v3 ([sp + #48]), v5 ([sp + #56]), v7 ([sp + #64]), v8 ([sp + #68]), v9 ([sp + #72]), v10 ([sp + #76]), v11 ([sp + #80]), v13 ([sp + #100]), v14 ([sp + #104])
      0x0000581b:               8944243C    	       mov [esp + 60], eax
      0x0000581f:                 8B0424    	       mov eax, [esp]
      0x00005822:                   8B00    	       mov eax, [eax]
      0x00005824:                 8B4014    	       mov eax, [eax + 20]
      0x00005827:           8B8088020000    	       mov eax, [eax + 648]
      0x0000582d:                   85C0    	       test eax, eax
      0x0000582f:           0F843F030000    	       jz/eq +831 (0x00005b74)
      0x00005835:               8944244C    	       mov [esp + 76], eax
      0x00005839:                 8B0C24    	       mov ecx, [esp]
      0x0000583c:             B82F000000    	       mov eax, 47
      0x00005841:         64FF1514010000    	       call fs:[0x114]  ; pAllocObject
      suspend point dex PC: 0x005b
      GC map objects:  v0 ([sp + #36]), v1 ([sp + #40]), v2 ([sp + #44]), v3 ([sp + #48]), v5 ([sp + #56]), v6 ([sp + #60]), v7 ([sp + #64]), v8 ([sp + #68]), v9 ([sp + #72]), v10 ([sp + #76]), v11 ([sp + #80]), v13 ([sp + #100]), v14 ([sp + #104])
      0x00005848:               89442450    	       mov [esp + 80], eax
      0x0000584c:               8B442450    	       mov eax, [esp + 80]
      0x00005850:                   8500    	       test eax, [eax]
      suspend point dex PC: 0x005d
      GC map objects:  v0 ([sp + #36]), v1 ([sp + #40]), v2 ([sp + #44]), v3 ([sp + #48]), v5 ([sp + #56]), v6 ([sp + #60]), v7 ([sp + #64]), v8 ([sp + #68]), v9 ([sp + #72]), v10 ([sp + #76]), v11 ([sp + #80]), v13 ([sp + #100]), v14 ([sp + #104])
      0x00005852:               89442420    	       mov [esp + 32], eax
      0x00005856:               8B4C2420    	       mov ecx, [esp + 32]
      0x0000585a:                 8B0424    	       mov eax, [esp]
      0x0000585d:                 8B4004    	       mov eax, [eax + 4]
      0x00005860:           8B8008010000    	       mov eax, [eax + 264]
      0x00005866:                 FF5024    	       call [eax + 36]
      suspend point dex PC: 0x005d
      GC map objects:  v0 ([sp + #36]), v1 ([sp + #40]), v2 ([sp + #44]), v3 ([sp + #48]), v5 ([sp + #56]), v6 ([sp + #60]), v7 ([sp + #64]), v8 ([sp + #68]), v9 ([sp + #72]), v10 ([sp + #76]), v11 ([sp + #80]), v13 ([sp + #100]), v14 ([sp + #104])
      0x00005869:                 8B0424    	       mov eax, [esp]
      0x0000586c:                   8B00    	       mov eax, [eax]
      0x0000586e:                 8B4014    	       mov eax, [eax + 20]
      0x00005871:           8B8078020000    	       mov eax, [eax + 632]
      0x00005877:                   85C0    	       test eax, eax
      0x00005879:           0F8406030000    	       jz/eq +774 (0x00005b85)
      0x0000587f:               89442454    	       mov [esp + 84], eax
      0x00005883:               8B442450    	       mov eax, [esp + 80]
      0x00005887:                   8500    	       test eax, [eax]
      suspend point dex PC: 0x0062
      GC map objects:  v0 ([sp + #36]), v1 ([sp + #40]), v2 ([sp + #44]), v3 ([sp + #48]), v5 ([sp + #56]), v6 ([sp + #60]), v7 ([sp + #64]), v8 ([sp + #68]), v9 ([sp + #72]), v10 ([sp + #76]), v11 ([sp + #80]), v12 ([sp + #84]), v13 ([sp + #100]), v14 ([sp + #104])
      0x00005889:               89442420    	       mov [esp + 32], eax
      0x0000588d:               8B4C2420    	       mov ecx, [esp + 32]
      0x00005891:               8B542454    	       mov edx, [esp + 84]
      0x00005895:                 8B0424    	       mov eax, [esp]
      0x00005898:                 8B4004    	       mov eax, [eax + 4]
      0x0000589b:           8B8010010000    	       mov eax, [eax + 272]
      0x000058a1:                 FF5024    	       call [eax + 36]
      suspend point dex PC: 0x0062
      GC map objects:  v0 ([sp + #36]), v1 ([sp + #40]), v2 ([sp + #44]), v3 ([sp + #48]), v5 ([sp + #56]), v6 ([sp + #60]), v7 ([sp + #64]), v8 ([sp + #68]), v9 ([sp + #72]), v10 ([sp + #76]), v11 ([sp + #80]), v12 ([sp + #84]), v13 ([sp + #100]), v14 ([sp + #104])
      0x000058a4:               89442450    	       mov [esp + 80], eax
      0x000058a8:                 8B0424    	       mov eax, [esp]
      0x000058ab:                 8B4008    	       mov eax, [eax + 8]
      0x000058ae:           8B80CC000000    	       mov eax, [eax + 204]
      0x000058b4:                   85C0    	       test eax, eax
      0x000058b6:           0F84DA020000    	       jz/eq +730 (0x00005b96)
      0x000058bc:         83B8840000000A    	       cmp [eax + 132], 10
      0x000058c3:           0F8CDE020000    	       jl/nge +734 (0x00005ba7)
      0x000058c9:               8B4C243C    	       mov ecx, [esp + 60]
      0x000058cd:                 8B0424    	       mov eax, [esp]
      0x000058d0:                 8B4004    	       mov eax, [eax + 4]
      0x000058d3:           8B801C010000    	       mov eax, [eax + 284]
      0x000058d9:                 FF5024    	       call [eax + 36]
      suspend point dex PC: 0x0066
      GC map objects:  v0 ([sp + #36]), v1 ([sp + #40]), v2 ([sp + #44]), v3 ([sp + #48]), v5 ([sp + #56]), v6 ([sp + #60]), v7 ([sp + #64]), v8 ([sp + #68]), v9 ([sp + #72]), v10 ([sp + #76]), v11 ([sp + #80]), v12 ([sp + #84]), v13 ([sp + #100]), v14 ([sp + #104])
      0x000058dc:               89442454    	       mov [esp + 84], eax
      0x000058e0:               8B442450    	       mov eax, [esp + 80]
      0x000058e4:                   8500    	       test eax, [eax]
      suspend point dex PC: 0x006a
      GC map objects:  v0 ([sp + #36]), v1 ([sp + #40]), v2 ([sp + #44]), v3 ([sp + #48]), v5 ([sp + #56]), v6 ([sp + #60]), v7 ([sp + #64]), v8 ([sp + #68]), v9 ([sp + #72]), v10 ([sp + #76]), v11 ([sp + #80]), v13 ([sp + #100]), v14 ([sp + #104])
      0x000058e6:               89442420    	       mov [esp + 32], eax
      0x000058ea:               8B4C2420    	       mov ecx, [esp + 32]
      0x000058ee:               8B542454    	       mov edx, [esp + 84]
      0x000058f2:                 8B0424    	       mov eax, [esp]
      0x000058f5:                 8B4004    	       mov eax, [eax + 4]
      0x000058f8:           8B800C010000    	       mov eax, [eax + 268]
      0x000058fe:                 FF5024    	       call [eax + 36]
      suspend point dex PC: 0x006a
      GC map objects:  v0 ([sp + #36]), v1 ([sp + #40]), v2 ([sp + #44]), v3 ([sp + #48]), v5 ([sp + #56]), v6 ([sp + #60]), v7 ([sp + #64]), v8 ([sp + #68]), v9 ([sp + #72]), v10 ([sp + #76]), v11 ([sp + #80]), v13 ([sp + #100]), v14 ([sp + #104])
      0x00005901:               89442450    	       mov [esp + 80], eax
      0x00005905:               8B442450    	       mov eax, [esp + 80]
      0x00005909:                   8500    	       test eax, [eax]
      suspend point dex PC: 0x006e
      GC map objects:  v0 ([sp + #36]), v1 ([sp + #40]), v2 ([sp + #44]), v3 ([sp + #48]), v5 ([sp + #56]), v6 ([sp + #60]), v7 ([sp + #64]), v8 ([sp + #68]), v9 ([sp + #72]), v10 ([sp + #76]), v11 ([sp + #80]), v13 ([sp + #100]), v14 ([sp + #104])
      0x0000590b:               89442420    	       mov [esp + 32], eax
      0x0000590f:               8B4C2420    	       mov ecx, [esp + 32]
      0x00005913:                 8B0424    	       mov eax, [esp]
      0x00005916:                 8B4004    	       mov eax, [eax + 4]
      0x00005919:           8B8014010000    	       mov eax, [eax + 276]
      0x0000591f:                 FF5024    	       call [eax + 36]
      suspend point dex PC: 0x006e
      GC map objects:  v0 ([sp + #36]), v1 ([sp + #40]), v2 ([sp + #44]), v3 ([sp + #48]), v5 ([sp + #56]), v6 ([sp + #60]), v7 ([sp + #64]), v8 ([sp + #68]), v9 ([sp + #72]), v10 ([sp + #76]), v11 ([sp + #80]), v13 ([sp + #100]), v14 ([sp + #104])
      0x00005922:               89442450    	       mov [esp + 80], eax
      0x00005926:                 8B0424    	       mov eax, [esp]
      0x00005929:                 8B4008    	       mov eax, [eax + 8]
      0x0000592c:                 8B4028    	       mov eax, [eax + 40]
      0x0000592f:                   85C0    	       test eax, eax
      0x00005931:           0F8481020000    	       jz/eq +641 (0x00005bb8)
      0x00005937:         83B8840000000A    	       cmp [eax + 132], 10
      0x0000593e:           0F8C85020000    	       jl/nge +645 (0x00005bc9)
      0x00005944:               8B4C244C    	       mov ecx, [esp + 76]
      0x00005948:               8B542450    	       mov edx, [esp + 80]
      0x0000594c:                 8B0424    	       mov eax, [esp]
      0x0000594f:                 8B4004    	       mov eax, [eax + 4]
      0x00005952:                 8B402C    	       mov eax, [eax + 44]
      0x00005955:                 FF5024    	       call [eax + 36]
      suspend point dex PC: 0x0072
      GC map objects:  v0 ([sp + #36]), v1 ([sp + #40]), v2 ([sp + #44]), v3 ([sp + #48]), v5 ([sp + #56]), v6 ([sp + #60]), v7 ([sp + #64]), v8 ([sp + #68]), v9 ([sp + #72]), v10 ([sp + #76]), v11 ([sp + #80]), v13 ([sp + #100]), v14 ([sp + #104])
      0x00005958:                 83C45C    	       add esp, 92
      0x0000595b:                     C3    	       ret 
      catch entry dex PC: 0x0076
      0x0000595c:         648B0584000000    	       mov eax, fs:[0x84]  ; exception
      0x00005963: 64C7058400000000000000    	       mov fs:[0x84], 0  ; exception
      0x0000596e:               89442434    	       mov [esp + 52], eax
      0x00005972:               8B442434    	       mov eax, [esp + 52]
      0x00005976:                   8500    	       test eax, [eax]
      suspend point dex PC: 0x0077
      GC map objects:  v4 ([sp + #52]), v13 ([sp + #100]), v14 ([sp + #104])
      0x00005978:               89442420    	       mov [esp + 32], eax
      0x0000597c:               8B4C2420    	       mov ecx, [esp + 32]
      0x00005980:                   8B01    	       mov eax, [ecx]
      0x00005982:           8B80D8010000    	       mov eax, [eax + 472]
      0x00005988:                 FF5024    	       call [eax + 36]
      suspend point dex PC: 0x0077
      GC map objects:  v4 ([sp + #52]), v13 ([sp + #100]), v14 ([sp + #104])
      0x0000598b:                   EBCB    	       jmp -53 (0x00005958)
      catch entry dex PC: 0x007b
      0x0000598d:         648B0584000000    	       mov eax, fs:[0x84]  ; exception
      0x00005994: 64C7058400000000000000    	       mov fs:[0x84], 0  ; exception
      0x0000599f:               89442434    	       mov [esp + 52], eax
      0x000059a3:               8B442434    	       mov eax, [esp + 52]
      0x000059a7:                   8500    	       test eax, [eax]
      suspend point dex PC: 0x007c
      GC map objects:  v4 ([sp + #52]), v13 ([sp + #100]), v14 ([sp + #104])
      0x000059a9:               89442420    	       mov [esp + 32], eax
      0x000059ad:               8B4C2420    	       mov ecx, [esp + 32]
      0x000059b1:                   8B01    	       mov eax, [ecx]
      0x000059b3:           8B80D8010000    	       mov eax, [eax + 472]
      0x000059b9:                 FF5024    	       call [eax + 36]
      suspend point dex PC: 0x007c
      GC map objects:  v4 ([sp + #52]), v13 ([sp + #100]), v14 ([sp + #104])
      0x000059bc:                   EB9A    	       jmp -102 (0x00005958)
      catch entry dex PC: 0x0080
      0x000059be:         648B0584000000    	       mov eax, fs:[0x84]  ; exception
      0x000059c5: 64C7058400000000000000    	       mov fs:[0x84], 0  ; exception
      0x000059d0:               89442434    	       mov [esp + 52], eax
      0x000059d4:               8B442434    	       mov eax, [esp + 52]
      0x000059d8:                   8500    	       test eax, [eax]
      suspend point dex PC: 0x0081
      GC map objects:  v4 ([sp + #52]), v13 ([sp + #100]), v14 ([sp + #104])
      0x000059da:               89442420    	       mov [esp + 32], eax
      0x000059de:               8B4C2420    	       mov ecx, [esp + 32]
      0x000059e2:                   8B01    	       mov eax, [ecx]
      0x000059e4:           8B80D8010000    	       mov eax, [eax + 472]
      0x000059ea:                 FF5024    	       call [eax + 36]
      suspend point dex PC: 0x0081
      GC map objects:  v4 ([sp + #52]), v13 ([sp + #100]), v14 ([sp + #104])
      0x000059ed:             E966FFFFFF    	       jmp -154 (0x00005958)
      0x000059f2:         64FF155C020000    	       call fs:[0x25c]  ; pTestSuspend
      suspend point dex PC: 0x0000
      GC map objects:  v13 ([sp + #100]), v14 ([sp + #104])
      0x000059f9:             E922FAFFFF    	       jmp -1502 (0x00005420)
      0x000059fe:             B875000000    	       mov eax, 117
      0x00005a03:         64FF154C010000    	       call fs:[0x14c]  ; pResolveString
      suspend point dex PC: 0x0000
      GC map objects:  v13 ([sp + #100]), v14 ([sp + #104])
      0x00005a0a:             E927FAFFFF    	       jmp -1497 (0x00005436)
      0x00005a0f:             B828000000    	       mov eax, 40
      0x00005a14:         64FF1548010000    	       call fs:[0x148]  ; pInitializeType
      suspend point dex PC: 0x0002
      GC map objects:  v10 ([sp + #76]), v13 ([sp + #100]), v14 ([sp + #104])
      0x00005a1b:             E92EFAFFFF    	       jmp -1490 (0x0000544e)
      0x00005a20:             B828000000    	       mov eax, 40
      0x00005a25:         64FF1540010000    	       call fs:[0x140]  ; pInitializeStaticStorage
      suspend point dex PC: 0x0002
      GC map objects:  v10 ([sp + #76]), v13 ([sp + #100]), v14 ([sp + #104])
      0x00005a2c:             E92AFAFFFF    	       jmp -1494 (0x0000545b)
      0x00005a31:             B8B0000000    	       mov eax, 176
      0x00005a36:         64FF154C010000    	       call fs:[0x14c]  ; pResolveString
      suspend point dex PC: 0x000c
      GC map objects:  v0 ([sp + #36]), v10 ([sp + #76]), v13 ([sp + #100]), v14 ([sp + #104])
      0x00005a3d:             E970FAFFFF    	       jmp -1424 (0x000054b2)
      0x00005a42:             B81B000000    	       mov eax, 27
      0x00005a47:         64FF1548010000    	       call fs:[0x148]  ; pInitializeType
      suspend point dex PC: 0x000e
      GC map objects:  v0 ([sp + #36]), v10 ([sp + #76]), v11 ([sp + #80]), v13 ([sp + #100]), v14 ([sp + #104])
      0x00005a4e:             E974FAFFFF    	       jmp -1420 (0x000054c7)
      0x00005a53:             B81B000000    	       mov eax, 27
      0x00005a58:         64FF1540010000    	       call fs:[0x140]  ; pInitializeStaticStorage
      suspend point dex PC: 0x000e
      GC map objects:  v0 ([sp + #36]), v10 ([sp + #76]), v11 ([sp + #80]), v13 ([sp + #100]), v14 ([sp + #104])
      0x00005a5f:             E970FAFFFF    	       jmp -1424 (0x000054d4)
      0x00005a64:             B879000000    	       mov eax, 121
      0x00005a69:         64FF154C010000    	       call fs:[0x14c]  ; pResolveString
      suspend point dex PC: 0x0016
      GC map objects:  v0 ([sp + #36]), v8 ([sp + #68]), v10 ([sp + #76]), v11 ([sp + #80]), v13 ([sp + #100]), v14 ([sp + #104])
      0x00005a70:             E9B5FAFFFF    	       jmp -1355 (0x0000552a)
      0x00005a75:             B81B000000    	       mov eax, 27
      0x00005a7a:         64FF1548010000    	       call fs:[0x148]  ; pInitializeType
      suspend point dex PC: 0x0018
      GC map objects:  v0 ([sp + #36]), v8 ([sp + #68]), v10 ([sp + #76]), v11 ([sp + #80]), v13 ([sp + #100]), v14 ([sp + #104])
      0x00005a81:             E9B9FAFFFF    	       jmp -1351 (0x0000553f)
      0x00005a86:             B81B000000    	       mov eax, 27
      0x00005a8b:         64FF1540010000    	       call fs:[0x140]  ; pInitializeStaticStorage
      suspend point dex PC: 0x0018
      GC map objects:  v0 ([sp + #36]), v8 ([sp + #68]), v10 ([sp + #76]), v11 ([sp + #80]), v13 ([sp + #100]), v14 ([sp + #104])
      0x00005a92:             E9B5FAFFFF    	       jmp -1355 (0x0000554c)
      0x00005a97:             B8A8000000    	       mov eax, 168
      0x00005a9c:         64FF154C010000    	       call fs:[0x14c]  ; pResolveString
      suspend point dex PC: 0x001c
      GC map objects:  v0 ([sp + #36]), v7 ([sp + #64]), v8 ([sp + #68]), v10 ([sp + #76]), v11 ([sp + #80]), v13 ([sp + #100]), v14 ([sp + #104])
      0x00005aa3:             E9D9FAFFFF    	       jmp -1319 (0x00005581)
      0x00005aa8:             B8B0000000    	       mov eax, 176
      0x00005aad:         64FF154C010000    	       call fs:[0x14c]  ; pResolveString
      suspend point dex PC: 0x0032
      GC map objects:  v0 ([sp + #36]), v2 ([sp + #44]), v3 ([sp + #48]), v7 ([sp + #64]), v8 ([sp + #68]), v10 ([sp + #76]), v13 ([sp + #100]), v14 ([sp + #104])
      0x00005ab4:             E99EFBFFFF    	       jmp -1122 (0x00005657)
      0x00005ab9:             B81B000000    	       mov eax, 27
      0x00005abe:         64FF1548010000    	       call fs:[0x148]  ; pInitializeType
      suspend point dex PC: 0x0034
      GC map objects:  v0 ([sp + #36]), v2 ([sp + #44]), v3 ([sp + #48]), v7 ([sp + #64]), v8 ([sp + #68]), v10 ([sp + #76]), v13 ([sp + #100]), v14 ([sp + #104])
      0x00005ac5:             E9A2FBFFFF    	       jmp -1118 (0x0000566c)
      0x00005aca:             B81B000000    	       mov eax, 27
      0x00005acf:         64FF1540010000    	       call fs:[0x140]  ; pInitializeStaticStorage
      suspend point dex PC: 0x0034
      GC map objects:  v0 ([sp + #36]), v2 ([sp + #44]), v3 ([sp + #48]), v7 ([sp + #64]), v8 ([sp + #68]), v10 ([sp + #76]), v13 ([sp + #100]), v14 ([sp + #104])
      0x00005ad6:             E99EFBFFFF    	       jmp -1122 (0x00005679)
      0x00005adb:             B879000000    	       mov eax, 121
      0x00005ae0:         64FF154C010000    	       call fs:[0x14c]  ; pResolveString
      suspend point dex PC: 0x003c
      GC map objects:  v0 ([sp + #36]), v2 ([sp + #44]), v3 ([sp + #48]), v7 ([sp + #64]), v8 ([sp + #68]), v9 ([sp + #72]), v10 ([sp + #76]), v13 ([sp + #100]), v14 ([sp + #104])
      0x00005ae7:             E9E3FBFFFF    	       jmp -1053 (0x000056cf)
      0x00005aec:             B81B000000    	       mov eax, 27
      0x00005af1:         64FF1548010000    	       call fs:[0x148]  ; pInitializeType
      suspend point dex PC: 0x003e
      GC map objects:  v0 ([sp + #36]), v2 ([sp + #44]), v3 ([sp + #48]), v7 ([sp + #64]), v8 ([sp + #68]), v9 ([sp + #72]), v10 ([sp + #76]), v11 ([sp + #80]), v13 ([sp + #100]), v14 ([sp + #104])
      0x00005af8:             E9E7FBFFFF    	       jmp -1049 (0x000056e4)
      0x00005afd:             B81B000000    	       mov eax, 27
      0x00005b02:         64FF1540010000    	       call fs:[0x140]  ; pInitializeStaticStorage
      suspend point dex PC: 0x003e
      GC map objects:  v0 ([sp + #36]), v2 ([sp + #44]), v3 ([sp + #48]), v7 ([sp + #64]), v8 ([sp + #68]), v9 ([sp + #72]), v10 ([sp + #76]), v11 ([sp + #80]), v13 ([sp + #100]), v14 ([sp + #104])
      0x00005b09:             E9E3FBFFFF    	       jmp -1053 (0x000056f1)
      0x00005b0e:             B879000000    	       mov eax, 121
      0x00005b13:         64FF154C010000    	       call fs:[0x14c]  ; pResolveString
      suspend point dex PC: 0x004a
      GC map objects:  v0 ([sp + #36]), v1 ([sp + #40]), v2 ([sp + #44]), v3 ([sp + #48]), v5 ([sp + #56]), v7 ([sp + #64]), v8 ([sp + #68]), v9 ([sp + #72]), v10 ([sp + #76]), v11 ([sp + #80]), v13 ([sp + #100]), v14 ([sp + #104])
      0x00005b1a:             E943FCFFFF    	       jmp -957 (0x00005762)
      0x00005b1f:             B81B000000    	       mov eax, 27
      0x00005b24:         64FF1548010000    	       call fs:[0x148]  ; pInitializeType
      suspend point dex PC: 0x004c
      GC map objects:  v0 ([sp + #36]), v1 ([sp + #40]), v2 ([sp + #44]), v3 ([sp + #48]), v5 ([sp + #56]), v7 ([sp + #64]), v8 ([sp + #68]), v9 ([sp + #72]), v10 ([sp + #76]), v11 ([sp + #80]), v13 ([sp + #100]), v14 ([sp + #104])
      0x00005b2b:             E947FCFFFF    	       jmp -953 (0x00005777)
      0x00005b30:             B81B000000    	       mov eax, 27
      0x00005b35:         64FF1540010000    	       call fs:[0x140]  ; pInitializeStaticStorage
      suspend point dex PC: 0x004c
      GC map objects:  v0 ([sp + #36]), v1 ([sp + #40]), v2 ([sp + #44]), v3 ([sp + #48]), v5 ([sp + #56]), v7 ([sp + #64]), v8 ([sp + #68]), v9 ([sp + #72]), v10 ([sp + #76]), v11 ([sp + #80]), v13 ([sp + #100]), v14 ([sp + #104])
      0x00005b3c:             E943FCFFFF    	       jmp -957 (0x00005784)
      0x00005b41:             B879000000    	       mov eax, 121
      0x00005b46:         64FF154C010000    	       call fs:[0x14c]  ; pResolveString
      suspend point dex PC: 0x0053
      GC map objects:  v0 ([sp + #36]), v1 ([sp + #40]), v2 ([sp + #44]), v3 ([sp + #48]), v5 ([sp + #56]), v7 ([sp + #64]), v8 ([sp + #68]), v9 ([sp + #72]), v10 ([sp + #76]), v11 ([sp + #80]), v13 ([sp + #100]), v14 ([sp + #104])
      0x00005b4d:             E98CFCFFFF    	       jmp -884 (0x000057de)
      0x00005b52:             B81B000000    	       mov eax, 27
      0x00005b57:         64FF1548010000    	       call fs:[0x148]  ; pInitializeType
      suspend point dex PC: 0x0055
      GC map objects:  v0 ([sp + #36]), v1 ([sp + #40]), v2 ([sp + #44]), v3 ([sp + #48]), v5 ([sp + #56]), v7 ([sp + #64]), v8 ([sp + #68]), v9 ([sp + #72]), v10 ([sp + #76]), v11 ([sp + #80]), v13 ([sp + #100]), v14 ([sp + #104])
      0x00005b5e:             E990FCFFFF    	       jmp -880 (0x000057f3)
      0x00005b63:             B81B000000    	       mov eax, 27
      0x00005b68:         64FF1540010000    	       call fs:[0x140]  ; pInitializeStaticStorage
      suspend point dex PC: 0x0055
      GC map objects:  v0 ([sp + #36]), v1 ([sp + #40]), v2 ([sp + #44]), v3 ([sp + #48]), v5 ([sp + #56]), v7 ([sp + #64]), v8 ([sp + #68]), v9 ([sp + #72]), v10 ([sp + #76]), v11 ([sp + #80]), v13 ([sp + #100]), v14 ([sp + #104])
      0x00005b6f:             E98CFCFFFF    	       jmp -884 (0x00005800)
      0x00005b74:             B89F000000    	       mov eax, 159
      0x00005b79:         64FF154C010000    	       call fs:[0x14c]  ; pResolveString
      suspend point dex PC: 0x0059
      GC map objects:  v0 ([sp + #36]), v1 ([sp + #40]), v2 ([sp + #44]), v3 ([sp + #48]), v5 ([sp + #56]), v6 ([sp + #60]), v7 ([sp + #64]), v8 ([sp + #68]), v9 ([sp + #72]), v10 ([sp + #76]), v11 ([sp + #80]), v13 ([sp + #100]), v14 ([sp + #104])
      0x00005b80:             E9B0FCFFFF    	       jmp -848 (0x00005835)
      0x00005b85:             B89B000000    	       mov eax, 155
      0x00005b8a:         64FF154C010000    	       call fs:[0x14c]  ; pResolveString
      suspend point dex PC: 0x0060
      GC map objects:  v0 ([sp + #36]), v1 ([sp + #40]), v2 ([sp + #44]), v3 ([sp + #48]), v5 ([sp + #56]), v6 ([sp + #60]), v7 ([sp + #64]), v8 ([sp + #68]), v9 ([sp + #72]), v10 ([sp + #76]), v11 ([sp + #80]), v13 ([sp + #100]), v14 ([sp + #104])
      0x00005b91:             E9E9FCFFFF    	       jmp -791 (0x0000587f)
      0x00005b96:             B830000000    	       mov eax, 48
      0x00005b9b:         64FF1548010000    	       call fs:[0x148]  ; pInitializeType
      suspend point dex PC: 0x0066
      GC map objects:  v0 ([sp + #36]), v1 ([sp + #40]), v2 ([sp + #44]), v3 ([sp + #48]), v5 ([sp + #56]), v6 ([sp + #60]), v7 ([sp + #64]), v8 ([sp + #68]), v9 ([sp + #72]), v10 ([sp + #76]), v11 ([sp + #80]), v12 ([sp + #84]), v13 ([sp + #100]), v14 ([sp + #104])
      0x00005ba2:             E915FDFFFF    	       jmp -747 (0x000058bc)
      0x00005ba7:             B830000000    	       mov eax, 48
      0x00005bac:         64FF1540010000    	       call fs:[0x140]  ; pInitializeStaticStorage
      suspend point dex PC: 0x0066
      GC map objects:  v0 ([sp + #36]), v1 ([sp + #40]), v2 ([sp + #44]), v3 ([sp + #48]), v5 ([sp + #56]), v6 ([sp + #60]), v7 ([sp + #64]), v8 ([sp + #68]), v9 ([sp + #72]), v10 ([sp + #76]), v11 ([sp + #80]), v12 ([sp + #84]), v13 ([sp + #100]), v14 ([sp + #104])
      0x00005bb3:             E911FDFFFF    	       jmp -751 (0x000058c9)
      0x00005bb8:             B807000000    	       mov eax, 7
      0x00005bbd:         64FF1548010000    	       call fs:[0x148]  ; pInitializeType
      suspend point dex PC: 0x0072
      GC map objects:  v0 ([sp + #36]), v1 ([sp + #40]), v2 ([sp + #44]), v3 ([sp + #48]), v5 ([sp + #56]), v6 ([sp + #60]), v7 ([sp + #64]), v8 ([sp + #68]), v9 ([sp + #72]), v10 ([sp + #76]), v11 ([sp + #80]), v13 ([sp + #100]), v14 ([sp + #104])
      0x00005bc4:             E96EFDFFFF    	       jmp -658 (0x00005937)
      0x00005bc9:             B807000000    	       mov eax, 7
      0x00005bce:         64FF1540010000    	       call fs:[0x140]  ; pInitializeStaticStorage
      suspend point dex PC: 0x0072
      GC map objects:  v0 ([sp + #36]), v1 ([sp + #40]), v2 ([sp + #44]), v3 ([sp + #48]), v5 ([sp + #56]), v6 ([sp + #60]), v7 ([sp + #64]), v8 ([sp + #68]), v9 ([sp + #72]), v10 ([sp + #76]), v11 ([sp + #80]), v13 ([sp + #100]), v14 ([sp + #104])
      0x00005bd5:             E96AFDFFFF    	       jmp -662 (0x00005944)
16: Lcom/ljj/patch/util/HotFix; (offset=0x00002d50) (type_idx=26) (StatusInitialized) (OatClassAllCompiled)
  0: void com.ljj.patch.util.HotFix.<init>() (dex_method_idx=36)
    DEX CODE:
      0x0000: 7010 3d00 0000           	| invoke-direct {v0}, void java.lang.Object.<init>() // method@61
      0x0003: 0e00                     	| return-void
    OatMethodOffsets (offset=0x00002d54)
      code_offset: 0x00005bfc 
      gc_map: (offset=0x00002d70)
    OatQuickMethodHeader (offset=0x00005be0)
      mapping_table: (offset=0x000030ec)
      vmap_table: (offset=0x00003320)
      v65535/r8
    QuickMethodFrameInfo
      frame_size_in_bytes: 32
      core_spill_mask: 0x00000100 (r8)
      fp_spill_mask: 0x00000000 
      vr_stack_locations:
      	ins: v0[sp + #36]
      	method*: v1[sp + #0]
      	outs: v0[sp + #4]
    CODE: (code_offset=0x00005bfc size_offset=0x00005bf8 size=74)...
      0x00005bfc:         85842400E0FFFF    	       test eax, [esp + -8192]
      suspend point dex PC: 0x0000
      GC map objects:  v0 ([sp + #36])
      0x00005c03:                 83EC1C    	       sub esp, 28
      0x00005c06:                 890424    	       mov [esp], eax
      0x00005c09:               894C2424    	       mov [esp + 36], ecx
      0x00005c0d:     6466833D0000000000    	       cmpw fs:[0x0], 0  ; state_and_flags
      0x00005c16:           0F8521000000    	       jnz/ne +33 (0x00005c3d)
      0x00005c1c:               8B442424    	       mov eax, [esp + 36]
      0x00005c20:                   8500    	       test eax, [eax]
      suspend point dex PC: 0x0000
      GC map objects:  v0 ([sp + #36])
      0x00005c22:               89442414    	       mov [esp + 20], eax
      0x00005c26:               8B4C2414    	       mov ecx, [esp + 20]
      0x00005c2a:                 8B0424    	       mov eax, [esp]
      0x00005c2d:                 8B4004    	       mov eax, [eax + 4]
      0x00005c30:           8B8000010000    	       mov eax, [eax + 256]
      0x00005c36:                 FF5024    	       call [eax + 36]
      suspend point dex PC: 0x0000
      GC map objects:  v0 ([sp + #36])
      0x00005c39:                 83C41C    	       add esp, 28
      0x00005c3c:                     C3    	       ret 
      0x00005c3d:         64FF155C020000    	       call fs:[0x25c]  ; pTestSuspend
      suspend point dex PC: 0x0000
      GC map objects:  v0 ([sp + #36])
      0x00005c44:                   EBD6    	       jmp -42 (0x00005c1c)
  1: void com.ljj.patch.util.HotFix.init(android.content.Context) (dex_method_idx=37)
    DEX CODE:
      0x0000: 1a03 9100                	| const-string v3, "hackDir" // string@145
      0x0002: 1204                     	| const/4 v4, #+0
      0x0003: 6e30 0500 3504           	| invoke-virtual {v5, v3, v4}, java.io.File android.content.Context.getDir(java.lang.String, int) // method@5
      0x0006: 0c01                     	| move-result-object v1
      0x0007: 2202 2200                	| new-instance v2, java.io.File // type@34
      0x0009: 1a03 9000                	| const-string v3, "hack.apk" // string@144
      0x000b: 7030 2b00 1203           	| invoke-direct {v2, v1, v3}, void java.io.File.<init>(java.io.File, java.lang.String) // method@43
      0x000e: 1a03 9000                	| const-string v3, "hack.apk" // string@144
      0x0010: 6e10 2e00 0200           	| invoke-virtual {v2}, java.lang.String java.io.File.getAbsolutePath() // method@46
      0x0013: 0c04                     	| move-result-object v4
      0x0014: 7130 2000 3504           	| invoke-static {v5, v3, v4}, void com.ljj.patch.util.AssetUtils.copyAssets(android.content.Context, java.lang.String, java.lang.String) // method@32
      0x0017: 6e10 2e00 0200           	| invoke-virtual {v2}, java.lang.String java.io.File.getAbsolutePath() // method@46
      0x001a: 0c03                     	| move-result-object v3
      0x001b: 7120 2300 3500           	| invoke-static {v5, v3}, void com.ljj.patch.util.DexUtils.inject(android.content.Context, java.lang.String) // method@35
      0x001e: 0e00                     	| return-void
      0x001f: 0d00                     	| move-exception v0
      0x0020: 6e10 3200 0000           	| invoke-virtual {v0}, void java.io.IOException.printStackTrace() // method@50
      0x0023: 28fb                     	| goto -5
    OatMethodOffsets (offset=0x00002d58)
      code_offset: 0x00005c6c 
      gc_map: (offset=0x00003048)
    OatQuickMethodHeader (offset=0x00005c50)
      mapping_table: (offset=0x000032a0)
      vmap_table: (offset=0x00003320)
      v65535/r8
    QuickMethodFrameInfo
      frame_size_in_bytes: 48
      core_spill_mask: 0x00000100 (r8)
      fp_spill_mask: 0x00000000 
      vr_stack_locations:
      	locals: v0[sp + #20] v1[sp + #24] v2[sp + #28] v3[sp + #32] v4[sp + #36]
      	ins: v5[sp + #52]
      	method*: v6[sp + #0]
      	outs: v0[sp + #4] v1[sp + #8] v2[sp + #12]
    CODE: (code_offset=0x00005c6c size_offset=0x00005c68 size=571)...
      0x00005c6c:         85842400E0FFFF    	       test eax, [esp + -8192]
      suspend point dex PC: 0x0000
      GC map objects:  v5 ([sp + #52])
      0x00005c73:                 83EC2C    	       sub esp, 44
      0x00005c76:                 890424    	       mov [esp], eax
      0x00005c79:               894C2434    	       mov [esp + 52], ecx
      0x00005c7d:     6466833D0000000000    	       cmpw fs:[0x0], 0  ; state_and_flags
      0x00005c86:           0F8598010000    	       jnz/ne +408 (0x00005e24)
      0x00005c8c:                 8B0424    	       mov eax, [esp]
      0x00005c8f:                   8B00    	       mov eax, [eax]
      0x00005c91:                 8B4014    	       mov eax, [eax + 20]
      0x00005c94:           8B8050020000    	       mov eax, [eax + 592]
      0x00005c9a:                   85C0    	       test eax, eax
      0x00005c9c:           0F848E010000    	       jz/eq +398 (0x00005e30)
      0x00005ca2:               89442420    	       mov [esp + 32], eax
      0x00005ca6:       C744242400000000    	       mov [esp + 36], 0
      0x00005cae:               8B442434    	       mov eax, [esp + 52]
      0x00005cb2:                   8500    	       test eax, [eax]
      suspend point dex PC: 0x0003
      GC map objects:  v3 ([sp + #32]), v5 ([sp + #52])
      0x00005cb4:               89442410    	       mov [esp + 16], eax
      0x00005cb8:               8B4C2410    	       mov ecx, [esp + 16]
      0x00005cbc:               8B542420    	       mov edx, [esp + 32]
      0x00005cc0:               8B5C2424    	       mov ebx, [esp + 36]
      0x00005cc4:                   8B01    	       mov eax, [ecx]
      0x00005cc6:           8B805C020000    	       mov eax, [eax + 604]
      0x00005ccc:                 FF5024    	       call [eax + 36]
      suspend point dex PC: 0x0003
      GC map objects:  v3 ([sp + #32]), v5 ([sp + #52])
      0x00005ccf:               89442418    	       mov [esp + 24], eax
      0x00005cd3:                 8B0C24    	       mov ecx, [esp]
      0x00005cd6:             B822000000    	       mov eax, 34
      0x00005cdb:         64FF1514010000    	       call fs:[0x114]  ; pAllocObject
      suspend point dex PC: 0x0007
      GC map objects:  v1 ([sp + #24]), v3 ([sp + #32]), v5 ([sp + #52])
      0x00005ce2:               8944241C    	       mov [esp + 28], eax
      0x00005ce6:                 8B0424    	       mov eax, [esp]
      0x00005ce9:                   8B00    	       mov eax, [eax]
      0x00005ceb:                 8B4014    	       mov eax, [eax + 20]
      0x00005cee:           8B804C020000    	       mov eax, [eax + 588]
      0x00005cf4:                   85C0    	       test eax, eax
      0x00005cf6:           0F8445010000    	       jz/eq +325 (0x00005e41)
      0x00005cfc:               89442420    	       mov [esp + 32], eax
      0x00005d00:               8B44241C    	       mov eax, [esp + 28]
      0x00005d04:                   8500    	       test eax, [eax]
      suspend point dex PC: 0x000b
      GC map objects:  v1 ([sp + #24]), v2 ([sp + #28]), v3 ([sp + #32]), v5 ([sp + #52])
      0x00005d06:               89442410    	       mov [esp + 16], eax
      0x00005d0a:               8B4C2410    	       mov ecx, [esp + 16]
      0x00005d0e:               8B542418    	       mov edx, [esp + 24]
      0x00005d12:               8B5C2420    	       mov ebx, [esp + 32]
      0x00005d16:                 8B0424    	       mov eax, [esp]
      0x00005d19:                 8B4004    	       mov eax, [eax + 4]
      0x00005d1c:           8B80B8000000    	       mov eax, [eax + 184]
      0x00005d22:                 FF5024    	       call [eax + 36]
      suspend point dex PC: 0x000b
      GC map objects:  v1 ([sp + #24]), v2 ([sp + #28]), v3 ([sp + #32]), v5 ([sp + #52])
      0x00005d25:                 8B0424    	       mov eax, [esp]
      0x00005d28:                   8B00    	       mov eax, [eax]
      0x00005d2a:                 8B4014    	       mov eax, [eax + 20]
      0x00005d2d:           8B804C020000    	       mov eax, [eax + 588]
      0x00005d33:                   85C0    	       test eax, eax
      0x00005d35:           0F8417010000    	       jz/eq +279 (0x00005e52)
      0x00005d3b:               89442420    	       mov [esp + 32], eax
      0x00005d3f:               8B44241C    	       mov eax, [esp + 28]
      0x00005d43:                   8500    	       test eax, [eax]
      suspend point dex PC: 0x0010
      GC map objects:  v1 ([sp + #24]), v2 ([sp + #28]), v3 ([sp + #32]), v5 ([sp + #52])
      0x00005d45:               89442410    	       mov [esp + 16], eax
      0x00005d49:               8B4C2410    	       mov ecx, [esp + 16]
      0x00005d4d:                 8B0424    	       mov eax, [esp]
      0x00005d50:                 8B4004    	       mov eax, [eax + 4]
      0x00005d53:           8B80C4000000    	       mov eax, [eax + 196]
      0x00005d59:                 FF5024    	       call [eax + 36]
      suspend point dex PC: 0x0010
      GC map objects:  v1 ([sp + #24]), v2 ([sp + #28]), v3 ([sp + #32]), v5 ([sp + #52])
      0x00005d5c:               89442424    	       mov [esp + 36], eax
      0x00005d60:                 8B0424    	       mov eax, [esp]
      0x00005d63:                 8B4008    	       mov eax, [eax + 8]
      0x00005d66:                 8B406C    	       mov eax, [eax + 108]
      0x00005d69:                   85C0    	       test eax, eax
      0x00005d6b:           0F84F2000000    	       jz/eq +242 (0x00005e63)
      0x00005d71:         83B8840000000A    	       cmp [eax + 132], 10
      0x00005d78:           0F8CF6000000    	       jl/nge +246 (0x00005e74)
      0x00005d7e:               8B4C2434    	       mov ecx, [esp + 52]
      0x00005d82:               8B542420    	       mov edx, [esp + 32]
      0x00005d86:               8B5C2424    	       mov ebx, [esp + 36]
      0x00005d8a:                 8B0424    	       mov eax, [esp]
      0x00005d8d:                 8B4004    	       mov eax, [eax + 4]
      0x00005d90:           8B808C000000    	       mov eax, [eax + 140]
      0x00005d96:                 FF5024    	       call [eax + 36]
      suspend point dex PC: 0x0014
      GC map objects:  v1 ([sp + #24]), v2 ([sp + #28]), v3 ([sp + #32]), v4 ([sp + #36]), v5 ([sp + #52])
      0x00005d99:               8B44241C    	       mov eax, [esp + 28]
      0x00005d9d:                   8500    	       test eax, [eax]
      suspend point dex PC: 0x0017
      GC map objects:  v1 ([sp + #24]), v2 ([sp + #28]), v3 ([sp + #32]), v4 ([sp + #36]), v5 ([sp + #52])
      0x00005d9f:               89442410    	       mov [esp + 16], eax
      0x00005da3:               8B4C2410    	       mov ecx, [esp + 16]
      0x00005da7:                 8B0424    	       mov eax, [esp]
      0x00005daa:                 8B4004    	       mov eax, [eax + 4]
      0x00005dad:           8B80C4000000    	       mov eax, [eax + 196]
      0x00005db3:                 FF5024    	       call [eax + 36]
      suspend point dex PC: 0x0017
      GC map objects:  v1 ([sp + #24]), v2 ([sp + #28]), v3 ([sp + #32]), v4 ([sp + #36]), v5 ([sp + #52])
      0x00005db6:               89442420    	       mov [esp + 32], eax
      0x00005dba:                 8B0424    	       mov eax, [esp]
      0x00005dbd:                 8B4008    	       mov eax, [eax + 8]
      0x00005dc0:                 8B4070    	       mov eax, [eax + 112]
      0x00005dc3:                   85C0    	       test eax, eax
      0x00005dc5:           0F84BA000000    	       jz/eq +186 (0x00005e85)
      0x00005dcb:         83B8840000000A    	       cmp [eax + 132], 10
      0x00005dd2:           0F8CBE000000    	       jl/nge +190 (0x00005e96)
      0x00005dd8:               8B4C2434    	       mov ecx, [esp + 52]
      0x00005ddc:               8B542420    	       mov edx, [esp + 32]
      0x00005de0:                 8B0424    	       mov eax, [esp]
      0x00005de3:                 8B4004    	       mov eax, [eax + 4]
      0x00005de6:           8B8098000000    	       mov eax, [eax + 152]
      0x00005dec:                 FF5024    	       call [eax + 36]
      suspend point dex PC: 0x001b
      GC map objects:  v1 ([sp + #24]), v2 ([sp + #28]), v3 ([sp + #32]), v4 ([sp + #36]), v5 ([sp + #52])
      0x00005def:                 83C42C    	       add esp, 44
      0x00005df2:                     C3    	       ret 
      catch entry dex PC: 0x001f
      0x00005df3:         648B0584000000    	       mov eax, fs:[0x84]  ; exception
      0x00005dfa: 64C7058400000000000000    	       mov fs:[0x84], 0  ; exception
      0x00005e05:               89442414    	       mov [esp + 20], eax
      0x00005e09:               8B442414    	       mov eax, [esp + 20]
      0x00005e0d:                   8500    	       test eax, [eax]
      suspend point dex PC: 0x0020
      GC map objects:  v0 ([sp + #20]), v1 ([sp + #24]), v2 ([sp + #28]), v3 ([sp + #32]), v4 ([sp + #36]), v5 ([sp + #52])
      0x00005e0f:               89442410    	       mov [esp + 16], eax
      0x00005e13:               8B4C2410    	       mov ecx, [esp + 16]
      0x00005e17:                   8B01    	       mov eax, [ecx]
      0x00005e19:           8B80D8010000    	       mov eax, [eax + 472]
      0x00005e1f:                 FF5024    	       call [eax + 36]
      suspend point dex PC: 0x0020
      GC map objects:  v0 ([sp + #20]), v1 ([sp + #24]), v2 ([sp + #28]), v3 ([sp + #32]), v4 ([sp + #36]), v5 ([sp + #52])
      0x00005e22:                   EBCB    	       jmp -53 (0x00005def)
      0x00005e24:         64FF155C020000    	       call fs:[0x25c]  ; pTestSuspend
      suspend point dex PC: 0x0000
      GC map objects:  v5 ([sp + #52])
      0x00005e2b:             E95CFEFFFF    	       jmp -420 (0x00005c8c)
      0x00005e30:             B891000000    	       mov eax, 145
      0x00005e35:         64FF154C010000    	       call fs:[0x14c]  ; pResolveString
      suspend point dex PC: 0x0000
      GC map objects:  v5 ([sp + #52])
      0x00005e3c:             E961FEFFFF    	       jmp -415 (0x00005ca2)
      0x00005e41:             B890000000    	       mov eax, 144
      0x00005e46:         64FF154C010000    	       call fs:[0x14c]  ; pResolveString
      suspend point dex PC: 0x0009
      GC map objects:  v1 ([sp + #24]), v2 ([sp + #28]), v3 ([sp + #32]), v5 ([sp + #52])
      0x00005e4d:             E9AAFEFFFF    	       jmp -342 (0x00005cfc)
      0x00005e52:             B890000000    	       mov eax, 144
      0x00005e57:         64FF154C010000    	       call fs:[0x14c]  ; pResolveString
      suspend point dex PC: 0x000e
      GC map objects:  v1 ([sp + #24]), v2 ([sp + #28]), v3 ([sp + #32]), v5 ([sp + #52])
      0x00005e5e:             E9D8FEFFFF    	       jmp -296 (0x00005d3b)
      0x00005e63:             B818000000    	       mov eax, 24
      0x00005e68:         64FF1548010000    	       call fs:[0x148]  ; pInitializeType
      suspend point dex PC: 0x0014
      GC map objects:  v1 ([sp + #24]), v2 ([sp + #28]), v3 ([sp + #32]), v4 ([sp + #36]), v5 ([sp + #52])
      0x00005e6f:             E9FDFEFFFF    	       jmp -259 (0x00005d71)
      0x00005e74:             B818000000    	       mov eax, 24
      0x00005e79:         64FF1540010000    	       call fs:[0x140]  ; pInitializeStaticStorage
      suspend point dex PC: 0x0014
      GC map objects:  v1 ([sp + #24]), v2 ([sp + #28]), v3 ([sp + #32]), v4 ([sp + #36]), v5 ([sp + #52])
      0x00005e80:             E9F9FEFFFF    	       jmp -263 (0x00005d7e)
      0x00005e85:             B819000000    	       mov eax, 25
      0x00005e8a:         64FF1548010000    	       call fs:[0x148]  ; pInitializeType
      suspend point dex PC: 0x001b
      GC map objects:  v1 ([sp + #24]), v2 ([sp + #28]), v3 ([sp + #32]), v4 ([sp + #36]), v5 ([sp + #52])
      0x00005e91:             E935FFFFFF    	       jmp -203 (0x00005dcb)
      0x00005e96:             B819000000    	       mov eax, 25
      0x00005e9b:         64FF1540010000    	       call fs:[0x140]  ; pInitializeStaticStorage
      suspend point dex PC: 0x001b
      GC map objects:  v1 ([sp + #24]), v2 ([sp + #28]), v3 ([sp + #32]), v4 ([sp + #36]), v5 ([sp + #52])
      0x00005ea2:             E931FFFFFF    	       jmp -207 (0x00005dd8)
  2: void com.ljj.patch.util.HotFix.inject(android.content.Context, java.lang.String) (dex_method_idx=38)
    DEX CODE:
      0x0000: 2200 2200                	| new-instance v0, java.io.File // type@34
      0x0002: 7020 2c00 4000           	| invoke-direct {v0, v4}, void java.io.File.<init>(java.lang.String) // method@44
      0x0005: 6e10 2d00 0000           	| invoke-virtual {v0}, boolean java.io.File.exists() // method@45
      0x0008: 0a01                     	| move-result v1
      0x0009: 3801 0c00                	| if-eqz v1, +12
      0x000b: 1a01 9f00                	| const-string v1, "ljj" // string@159
      0x000d: 1a02 9c00                	| const-string v2, "inject: " // string@156
      0x000f: 7120 0800 2100           	| invoke-static {v1, v2}, int android.util.Log.i(java.lang.String, java.lang.String) // method@8
      0x0012: 7120 2300 4300           	| invoke-static {v3, v4}, void com.ljj.patch.util.DexUtils.inject(android.content.Context, java.lang.String) // method@35
      0x0015: 0e00                     	| return-void
    OatMethodOffsets (offset=0x00002d5c)
      code_offset: 0x00005ecc 
      gc_map: (offset=0x00003090)
    OatQuickMethodHeader (offset=0x00005eb0)
      mapping_table: (offset=0x000032d4)
      vmap_table: (offset=0x00003320)
      v65535/r8
    QuickMethodFrameInfo
      frame_size_in_bytes: 48
      core_spill_mask: 0x00000100 (r8)
      fp_spill_mask: 0x00000000 
      vr_stack_locations:
      	locals: v0[sp + #28] v1[sp + #32] v2[sp + #36]
      	ins: v3[sp + #52] v4[sp + #56]
      	method*: v5[sp + #0]
      	outs: v0[sp + #4] v1[sp + #8]
    CODE: (code_offset=0x00005ecc size_offset=0x00005ec8 size=418)...
      0x00005ecc:         85842400E0FFFF    	       test eax, [esp + -8192]
      suspend point dex PC: 0x0000
      GC map objects:  v3 ([sp + #52]), v4 ([sp + #56])
      0x00005ed3:                 83EC2C    	       sub esp, 44
      0x00005ed6:                 890424    	       mov [esp], eax
      0x00005ed9:               894C2434    	       mov [esp + 52], ecx
      0x00005edd:               89542438    	       mov [esp + 56], edx
      0x00005ee1:     6466833D0000000000    	       cmpw fs:[0x0], 0  ; state_and_flags
      0x00005eea:           0F850C010000    	       jnz/ne +268 (0x00005ffc)
      0x00005ef0:                 8B0C24    	       mov ecx, [esp]
      0x00005ef3:             B822000000    	       mov eax, 34
      0x00005ef8:         64FF1514010000    	       call fs:[0x114]  ; pAllocObject
      suspend point dex PC: 0x0000
      GC map objects:  v3 ([sp + #52]), v4 ([sp + #56])
      0x00005eff:               8944241C    	       mov [esp + 28], eax
      0x00005f03:               8B44241C    	       mov eax, [esp + 28]
      0x00005f07:                   8500    	       test eax, [eax]
      suspend point dex PC: 0x0002
      GC map objects:  v0 ([sp + #28]), v3 ([sp + #52]), v4 ([sp + #56])
      0x00005f09:               89442418    	       mov [esp + 24], eax
      0x00005f0d:               8B4C2418    	       mov ecx, [esp + 24]
      0x00005f11:               8B542438    	       mov edx, [esp + 56]
      0x00005f15:                 8B0424    	       mov eax, [esp]
      0x00005f18:                 8B4004    	       mov eax, [eax + 4]
      0x00005f1b:           8B80BC000000    	       mov eax, [eax + 188]
      0x00005f21:                 FF5024    	       call [eax + 36]
      suspend point dex PC: 0x0002
      GC map objects:  v0 ([sp + #28]), v3 ([sp + #52]), v4 ([sp + #56])
      0x00005f24:               8B44241C    	       mov eax, [esp + 28]
      0x00005f28:                   8500    	       test eax, [eax]
      suspend point dex PC: 0x0005
      GC map objects:  v0 ([sp + #28]), v3 ([sp + #52]), v4 ([sp + #56])
      0x00005f2a:               89442418    	       mov [esp + 24], eax
      0x00005f2e:               8B4C2418    	       mov ecx, [esp + 24]
      0x00005f32:                 8B0424    	       mov eax, [esp]
      0x00005f35:                 8B4004    	       mov eax, [eax + 4]
      0x00005f38:           8B80C0000000    	       mov eax, [eax + 192]
      0x00005f3e:                 FF5024    	       call [eax + 36]
      suspend point dex PC: 0x0005
      GC map objects:  v0 ([sp + #28]), v3 ([sp + #52]), v4 ([sp + #56])
      0x00005f41:               89442420    	       mov [esp + 32], eax
      0x00005f45:               8B442420    	       mov eax, [esp + 32]
      0x00005f49:             BA00000000    	       mov edx, 0
      0x00005f4e:                   33C9    	       xor ecx, ecx
      0x00005f50:                   3BC2    	       cmp eax, edx
      0x00005f52:                 0F94C1    	       setz/eq ecx
      0x00005f55:                   89C8    	       mov eax, ecx
      0x00005f57:           0F849B000000    	       jz/eq +155 (0x00005ff8)
      0x00005f5d:                 8B0424    	       mov eax, [esp]
      0x00005f60:                   8B00    	       mov eax, [eax]
      0x00005f62:                 8B4014    	       mov eax, [eax + 20]
      0x00005f65:           8B8088020000    	       mov eax, [eax + 648]
      0x00005f6b:                   85C0    	       test eax, eax
      0x00005f6d:           0F8495000000    	       jz/eq +149 (0x00006008)
      0x00005f73:               89442420    	       mov [esp + 32], eax
      0x00005f77:                 8B0424    	       mov eax, [esp]
      0x00005f7a:                   8B00    	       mov eax, [eax]
      0x00005f7c:                 8B4014    	       mov eax, [eax + 20]
      0x00005f7f:           8B807C020000    	       mov eax, [eax + 636]
      0x00005f85:                   85C0    	       test eax, eax
      0x00005f87:           0F848C000000    	       jz/eq +140 (0x00006019)
      0x00005f8d:               89442424    	       mov [esp + 36], eax
      0x00005f91:                 8B0424    	       mov eax, [esp]
      0x00005f94:                 8B4008    	       mov eax, [eax + 8]
      0x00005f97:                 8B4028    	       mov eax, [eax + 40]
      0x00005f9a:                   85C0    	       test eax, eax
      0x00005f9c:           0F8488000000    	       jz/eq +136 (0x0000602a)
      0x00005fa2:         83B8840000000A    	       cmp [eax + 132], 10
      0x00005fa9:           0F8C8C000000    	       jl/nge +140 (0x0000603b)
      0x00005faf:               8B4C2420    	       mov ecx, [esp + 32]
      0x00005fb3:               8B542424    	       mov edx, [esp + 36]
      0x00005fb7:                 8B0424    	       mov eax, [esp]
      0x00005fba:                 8B4004    	       mov eax, [eax + 4]
      0x00005fbd:                 8B402C    	       mov eax, [eax + 44]
      0x00005fc0:                 FF5024    	       call [eax + 36]
      suspend point dex PC: 0x000f
      GC map objects:  v0 ([sp + #28]), v1 ([sp + #32]), v2 ([sp + #36]), v3 ([sp + #52]), v4 ([sp + #56])
      0x00005fc3:                 8B0424    	       mov eax, [esp]
      0x00005fc6:                 8B4008    	       mov eax, [eax + 8]
      0x00005fc9:                 8B4070    	       mov eax, [eax + 112]
      0x00005fcc:                   85C0    	       test eax, eax
      0x00005fce:           0F8478000000    	       jz/eq +120 (0x0000604c)
      0x00005fd4:         83B8840000000A    	       cmp [eax + 132], 10
      0x00005fdb:           0F8C7C000000    	       jl/nge +124 (0x0000605d)
      0x00005fe1:               8B4C2434    	       mov ecx, [esp + 52]
      0x00005fe5:               8B542438    	       mov edx, [esp + 56]
      0x00005fe9:                 8B0424    	       mov eax, [esp]
      0x00005fec:                 8B4004    	       mov eax, [eax + 4]
      0x00005fef:           8B8098000000    	       mov eax, [eax + 152]
      0x00005ff5:                 FF5024    	       call [eax + 36]
      suspend point dex PC: 0x0012
      GC map objects:  v0 ([sp + #28]), v1 ([sp + #32]), v2 ([sp + #36]), v3 ([sp + #52]), v4 ([sp + #56])
      0x00005ff8:                 83C42C    	       add esp, 44
      0x00005ffb:                     C3    	       ret 
      0x00005ffc:         64FF155C020000    	       call fs:[0x25c]  ; pTestSuspend
      suspend point dex PC: 0x0000
      GC map objects:  v3 ([sp + #52]), v4 ([sp + #56])
      0x00006003:             E9E8FEFFFF    	       jmp -280 (0x00005ef0)
      0x00006008:             B89F000000    	       mov eax, 159
      0x0000600d:         64FF154C010000    	       call fs:[0x14c]  ; pResolveString
      suspend point dex PC: 0x000b
      GC map objects:  v0 ([sp + #28]), v3 ([sp + #52]), v4 ([sp + #56])
      0x00006014:             E95AFFFFFF    	       jmp -166 (0x00005f73)
      0x00006019:             B89C000000    	       mov eax, 156
      0x0000601e:         64FF154C010000    	       call fs:[0x14c]  ; pResolveString
      suspend point dex PC: 0x000d
      GC map objects:  v0 ([sp + #28]), v1 ([sp + #32]), v3 ([sp + #52]), v4 ([sp + #56])
      0x00006025:             E963FFFFFF    	       jmp -157 (0x00005f8d)
      0x0000602a:             B807000000    	       mov eax, 7
      0x0000602f:         64FF1548010000    	       call fs:[0x148]  ; pInitializeType
      suspend point dex PC: 0x000f
      GC map objects:  v0 ([sp + #28]), v1 ([sp + #32]), v2 ([sp + #36]), v3 ([sp + #52]), v4 ([sp + #56])
      0x00006036:             E967FFFFFF    	       jmp -153 (0x00005fa2)
      0x0000603b:             B807000000    	       mov eax, 7
      0x00006040:         64FF1540010000    	       call fs:[0x140]  ; pInitializeStaticStorage
      suspend point dex PC: 0x000f
      GC map objects:  v0 ([sp + #28]), v1 ([sp + #32]), v2 ([sp + #36]), v3 ([sp + #52]), v4 ([sp + #56])
      0x00006047:             E963FFFFFF    	       jmp -157 (0x00005faf)
      0x0000604c:             B819000000    	       mov eax, 25
      0x00006051:         64FF1548010000    	       call fs:[0x148]  ; pInitializeType
      suspend point dex PC: 0x0012
      GC map objects:  v0 ([sp + #28]), v1 ([sp + #32]), v2 ([sp + #36]), v3 ([sp + #52]), v4 ([sp + #56])
      0x00006058:             E977FFFFFF    	       jmp -137 (0x00005fd4)
      0x0000605d:             B819000000    	       mov eax, 25
      0x00006062:         64FF1540010000    	       call fs:[0x140]  ; pInitializeStaticStorage
      suspend point dex PC: 0x0012
      GC map objects:  v0 ([sp + #28]), v1 ([sp + #32]), v2 ([sp + #36]), v3 ([sp + #52]), v4 ([sp + #56])
      0x00006069:             E973FFFFFF    	       jmp -141 (0x00005fe1)
17: Lcom/ljj/patch/util/ReflectionUtils; (offset=0x00002d60) (type_idx=27) (StatusInitialized) (OatClassAllCompiled)
  0: void com.ljj.patch.util.ReflectionUtils.<init>() (dex_method_idx=39)
    DEX CODE:
      0x0000: 7010 3d00 0000           	| invoke-direct {v0}, void java.lang.Object.<init>() // method@61
      0x0003: 0e00                     	| return-void
    OatMethodOffsets (offset=0x00002d64)
      code_offset: 0x0000608c 
      gc_map: (offset=0x00002d70)
    OatQuickMethodHeader (offset=0x00006070)
      mapping_table: (offset=0x000030ec)
      vmap_table: (offset=0x00003320)
      v65535/r8
    QuickMethodFrameInfo
      frame_size_in_bytes: 32
      core_spill_mask: 0x00000100 (r8)
      fp_spill_mask: 0x00000000 
      vr_stack_locations:
      	ins: v0[sp + #36]
      	method*: v1[sp + #0]
      	outs: v0[sp + #4]
    CODE: (code_offset=0x0000608c size_offset=0x00006088 size=74)...
      0x0000608c:         85842400E0FFFF    	       test eax, [esp + -8192]
      suspend point dex PC: 0x0000
      GC map objects:  v0 ([sp + #36])
      0x00006093:                 83EC1C    	       sub esp, 28
      0x00006096:                 890424    	       mov [esp], eax
      0x00006099:               894C2424    	       mov [esp + 36], ecx
      0x0000609d:     6466833D0000000000    	       cmpw fs:[0x0], 0  ; state_and_flags
      0x000060a6:           0F8521000000    	       jnz/ne +33 (0x000060cd)
      0x000060ac:               8B442424    	       mov eax, [esp + 36]
      0x000060b0:                   8500    	       test eax, [eax]
      suspend point dex PC: 0x0000
      GC map objects:  v0 ([sp + #36])
      0x000060b2:               89442414    	       mov [esp + 20], eax
      0x000060b6:               8B4C2414    	       mov ecx, [esp + 20]
      0x000060ba:                 8B0424    	       mov eax, [esp]
      0x000060bd:                 8B4004    	       mov eax, [eax + 4]
      0x000060c0:           8B8000010000    	       mov eax, [eax + 256]
      0x000060c6:                 FF5024    	       call [eax + 36]
      suspend point dex PC: 0x0000
      GC map objects:  v0 ([sp + #36])
      0x000060c9:                 83C41C    	       add esp, 28
      0x000060cc:                     C3    	       ret 
      0x000060cd:         64FF155C020000    	       call fs:[0x25c]  ; pTestSuspend
      suspend point dex PC: 0x0000
      GC map objects:  v0 ([sp + #36])
      0x000060d4:                   EBD6    	       jmp -42 (0x000060ac)
  1: java.lang.Object com.ljj.patch.util.ReflectionUtils.getField(java.lang.Class, java.lang.Object, java.lang.String) (dex_method_idx=40)
    DEX CODE:
      0x0000: 6e20 3900 4200           	| invoke-virtual {v2, v4}, java.lang.reflect.Field java.lang.Class.getDeclaredField(java.lang.String) // method@57
      0x0003: 0c00                     	| move-result-object v0
      0x0004: 1211                     	| const/4 v1, #+1
      0x0005: 6e20 4900 1000           	| invoke-virtual {v0, v1}, void java.lang.reflect.Field.setAccessible(boolean) // method@73
      0x0008: 6e20 4700 3000           	| invoke-virtual {v0, v3}, java.lang.Object java.lang.reflect.Field.get(java.lang.Object) // method@71
      0x000b: 0c01                     	| move-result-object v1
      0x000c: 1101                     	| return-object v1
    OatMethodOffsets (offset=0x00002d68)
      code_offset: 0x000060fc 
      gc_map: (offset=0x000030c4)
    OatQuickMethodHeader (offset=0x000060e0)
      mapping_table: (offset=0x000032f8)
      vmap_table: (offset=0x00003320)
      v65535/r8
    QuickMethodFrameInfo
      frame_size_in_bytes: 32
      core_spill_mask: 0x00000100 (r8)
      fp_spill_mask: 0x00000000 
      vr_stack_locations:
      	locals: v0[sp + #16] v1[sp + #20]
      	ins: v2[sp + #36] v3[sp + #40] v4[sp + #44]
      	method*: v5[sp + #0]
      	outs: v0[sp + #4] v1[sp + #8]
    CODE: (code_offset=0x000060fc size_offset=0x000060f8 size=168)...
      0x000060fc:         85842400E0FFFF    	       test eax, [esp + -8192]
      suspend point dex PC: 0x0000
      GC map objects:  v2 ([sp + #36]), v3 ([sp + #40]), v4 ([sp + #44])
      0x00006103:                 83EC1C    	       sub esp, 28
      0x00006106:                 890424    	       mov [esp], eax
      0x00006109:               894C2424    	       mov [esp + 36], ecx
      0x0000610d:               89542428    	       mov [esp + 40], edx
      0x00006111:               895C242C    	       mov [esp + 44], ebx
      0x00006115:     6466833D0000000000    	       cmpw fs:[0x0], 0  ; state_and_flags
      0x0000611e:           0F8577000000    	       jnz/ne +119 (0x0000619b)
      0x00006124:               8B442424    	       mov eax, [esp + 36]
      0x00006128:                   8500    	       test eax, [eax]
      suspend point dex PC: 0x0000
      GC map objects:  v2 ([sp + #36]), v3 ([sp + #40]), v4 ([sp + #44])
      0x0000612a:               8944240C    	       mov [esp + 12], eax
      0x0000612e:               8B4C240C    	       mov ecx, [esp + 12]
      0x00006132:               8B54242C    	       mov edx, [esp + 44]
      0x00006136:                 8B0424    	       mov eax, [esp]
      0x00006139:                 8B4004    	       mov eax, [eax + 4]
      0x0000613c:           8B80F0000000    	       mov eax, [eax + 240]
      0x00006142:                 FF5024    	       call [eax + 36]
      suspend point dex PC: 0x0000
      GC map objects:  v2 ([sp + #36]), v3 ([sp + #40]), v4 ([sp + #44])
      0x00006145:               89442410    	       mov [esp + 16], eax
      0x00006149:       C744241401000000    	       mov [esp + 20], 1
      0x00006151:               8B442410    	       mov eax, [esp + 16]
      0x00006155:                   8500    	       test eax, [eax]
      suspend point dex PC: 0x0005
      GC map objects:  v0 ([sp + #16]), v2 ([sp + #36]), v3 ([sp + #40]), v4 ([sp + #44])
      0x00006157:               8944240C    	       mov [esp + 12], eax
      0x0000615b:               8B4C240C    	       mov ecx, [esp + 12]
      0x0000615f:               8B542414    	       mov edx, [esp + 20]
      0x00006163:                   8B01    	       mov eax, [ecx]
      0x00006165:           8B80CC010000    	       mov eax, [eax + 460]
      0x0000616b:                 FF5024    	       call [eax + 36]
      suspend point dex PC: 0x0005
      GC map objects:  v0 ([sp + #16]), v2 ([sp + #36]), v3 ([sp + #40]), v4 ([sp + #44])
      0x0000616e:               8B442410    	       mov eax, [esp + 16]
      0x00006172:                   8500    	       test eax, [eax]
      suspend point dex PC: 0x0008
      GC map objects:  v0 ([sp + #16]), v2 ([sp + #36]), v3 ([sp + #40]), v4 ([sp + #44])
      0x00006174:               8944240C    	       mov [esp + 12], eax
      0x00006178:               8B4C240C    	       mov ecx, [esp + 12]
      0x0000617c:               8B542428    	       mov edx, [esp + 40]
      0x00006180:                 8B0424    	       mov eax, [esp]
      0x00006183:                 8B4004    	       mov eax, [eax + 4]
      0x00006186:           8B8028010000    	       mov eax, [eax + 296]
      0x0000618c:                 FF5024    	       call [eax + 36]
      suspend point dex PC: 0x0008
      GC map objects:  v0 ([sp + #16]), v2 ([sp + #36]), v3 ([sp + #40]), v4 ([sp + #44])
      0x0000618f:               89442414    	       mov [esp + 20], eax
      0x00006193:               8B442414    	       mov eax, [esp + 20]
      0x00006197:                 83C41C    	       add esp, 28
      0x0000619a:                     C3    	       ret 
      0x0000619b:         64FF155C020000    	       call fs:[0x25c]  ; pTestSuspend
      suspend point dex PC: 0x0000
      GC map objects:  v2 ([sp + #36]), v3 ([sp + #40]), v4 ([sp + #44])
      0x000061a2:                   EB80    	       jmp -128 (0x00006124)
  2: void com.ljj.patch.util.ReflectionUtils.setFeild(java.lang.Class, java.lang.Object, java.lang.String, java.lang.Object) (dex_method_idx=41)
    DEX CODE:
      0x0000: 6e20 3900 4200           	| invoke-virtual {v2, v4}, java.lang.reflect.Field java.lang.Class.getDeclaredField(java.lang.String) // method@57
      0x0003: 0c00                     	| move-result-object v0
      0x0004: 1211                     	| const/4 v1, #+1
      0x0005: 6e20 4900 1000           	| invoke-virtual {v0, v1}, void java.lang.reflect.Field.setAccessible(boolean) // method@73
      0x0008: 6e30 4800 3005           	| invoke-virtual {v0, v3, v5}, void java.lang.reflect.Field.set(java.lang.Object, java.lang.Object) // method@72
      0x000b: 0e00                     	| return-void
    OatMethodOffsets (offset=0x00002d6c)
      code_offset: 0x000061cc 
      gc_map: (offset=0x000030d8)
    OatQuickMethodHeader (offset=0x000061b0)
      mapping_table: (offset=0x0000330c)
      vmap_table: (offset=0x00003320)
      v65535/r8
    QuickMethodFrameInfo
      frame_size_in_bytes: 48
      core_spill_mask: 0x00000100 (r8)
      fp_spill_mask: 0x00000000 
      vr_stack_locations:
      	locals: v0[sp + #32] v1[sp + #36]
      	ins: v2[sp + #52] v3[sp + #56] v4[sp + #60] v5[sp + #64]
      	method*: v6[sp + #0]
      	outs: v0[sp + #4] v1[sp + #8] v2[sp + #12]
    CODE: (code_offset=0x000061cc size_offset=0x000061c8 size=164)...
      0x000061cc:         85842400E0FFFF    	       test eax, [esp + -8192]
      suspend point dex PC: 0x0000
      GC map objects:  v2 ([sp + #52]), v3 ([sp + #56]), v4 ([sp + #60]), v5 ([sp + #64])
      0x000061d3:                 83EC2C    	       sub esp, 44
      0x000061d6:                 890424    	       mov [esp], eax
      0x000061d9:               894C2434    	       mov [esp + 52], ecx
      0x000061dd:               89542438    	       mov [esp + 56], edx
      0x000061e1:               895C243C    	       mov [esp + 60], ebx
      0x000061e5:     6466833D0000000000    	       cmpw fs:[0x0], 0  ; state_and_flags
      0x000061ee:           0F8573000000    	       jnz/ne +115 (0x00006267)
      0x000061f4:               8B442434    	       mov eax, [esp + 52]
      0x000061f8:                   8500    	       test eax, [eax]
      suspend point dex PC: 0x0000
      GC map objects:  v2 ([sp + #52]), v3 ([sp + #56]), v4 ([sp + #60]), v5 ([sp + #64])
      0x000061fa:               8944241C    	       mov [esp + 28], eax
      0x000061fe:               8B4C241C    	       mov ecx, [esp + 28]
      0x00006202:               8B54243C    	       mov edx, [esp + 60]
      0x00006206:                 8B0424    	       mov eax, [esp]
      0x00006209:                 8B4004    	       mov eax, [eax + 4]
      0x0000620c:           8B80F0000000    	       mov eax, [eax + 240]
      0x00006212:                 FF5024    	       call [eax + 36]
      suspend point dex PC: 0x0000
      GC map objects:  v2 ([sp + #52]), v3 ([sp + #56]), v4 ([sp + #60]), v5 ([sp + #64])
      0x00006215:               89442420    	       mov [esp + 32], eax
      0x00006219:       C744242401000000    	       mov [esp + 36], 1
      0x00006221:               8B442420    	       mov eax, [esp + 32]
      0x00006225:                   8500    	       test eax, [eax]
      suspend point dex PC: 0x0005
      GC map objects:  v0 ([sp + #32]), v2 ([sp + #52]), v3 ([sp + #56]), v4 ([sp + #60]), v5 ([sp + #64])
      0x00006227:               8944241C    	       mov [esp + 28], eax
      0x0000622b:               8B4C241C    	       mov ecx, [esp + 28]
      0x0000622f:               8B542424    	       mov edx, [esp + 36]
      0x00006233:                   8B01    	       mov eax, [ecx]
      0x00006235:           8B80CC010000    	       mov eax, [eax + 460]
      0x0000623b:                 FF5024    	       call [eax + 36]
      suspend point dex PC: 0x0005
      GC map objects:  v0 ([sp + #32]), v2 ([sp + #52]), v3 ([sp + #56]), v4 ([sp + #60]), v5 ([sp + #64])
      0x0000623e:               8B442420    	       mov eax, [esp + 32]
      0x00006242:                   8500    	       test eax, [eax]
      suspend point dex PC: 0x0008
      GC map objects:  v0 ([sp + #32]), v2 ([sp + #52]), v3 ([sp + #56]), v4 ([sp + #60]), v5 ([sp + #64])
      0x00006244:               8944241C    	       mov [esp + 28], eax
      0x00006248:               8B4C241C    	       mov ecx, [esp + 28]
      0x0000624c:               8B542438    	       mov edx, [esp + 56]
      0x00006250:               8B5C2440    	       mov ebx, [esp + 64]
      0x00006254:                 8B0424    	       mov eax, [esp]
      0x00006257:                 8B4004    	       mov eax, [eax + 4]
      0x0000625a:           8B802C010000    	       mov eax, [eax + 300]
      0x00006260:                 FF5024    	       call [eax + 36]
      suspend point dex PC: 0x0008
      GC map objects:  v0 ([sp + #32]), v2 ([sp + #52]), v3 ([sp + #56]), v4 ([sp + #60]), v5 ([sp + #64])
      0x00006263:                 83C42C    	       add esp, 44
      0x00006266:                     C3    	       ret 
      0x00006267:         64FF155C020000    	       call fs:[0x25c]  ; pTestSuspend
      suspend point dex PC: 0x0000
      GC map objects:  v2 ([sp + #52]), v3 ([sp + #56]), v4 ([sp + #60]), v5 ([sp + #64])
      0x0000626e:                   EB84    	       jmp -124 (0x000061f4)
